(lp0
(S'36'
p1
S'5392'
p2
F33.34167692256793
tp3
a(S'5392'
p4
S'36'
p5
F33.34167692256793
tp6
a(S'8535'
p7
S'3708'
p8
F53.21201867143653
tp9
a(S'3708'
p10
S'8535'
p11
F53.21201867143653
tp12
a(S'70'
p13
S'4102'
p14
F79.40476368902313
tp15
a(S'4102'
p16
S'70'
p17
F79.40476368902313
tp18
a(S'70'
p19
S'111'
p20
F133.44592377283652
tp21
a(S'111'
p22
S'70'
p23
F133.44592377283652
tp24
a(S'70'
p25
S'260'
p26
F148.6464952918215
tp27
a(S'260'
p28
S'70'
p29
F148.6464952918215
tp30
a(S'71'
p31
S'176'
p32
F57.666455622277745
tp33
a(S'176'
p34
S'71'
p35
F57.666455622277745
tp36
a(S'71'
p37
S'5735'
p38
F81.36112276836516
tp39
a(S'5735'
p40
S'71'
p41
F81.36112276836516
tp42
a(S'71'
p43
S'361'
p44
F162.22750343064172
tp45
a(S'361'
p46
S'71'
p47
F162.22750343064172
tp48
a(S'72'
p49
S'7530'
p50
F39.018674490725466
tp51
a(S'7530'
p52
S'72'
p53
F39.018674490725466
tp54
a(S'72'
p55
S'468'
p56
F13.792393094136202
tp57
a(S'468'
p58
S'72'
p59
F13.792393094136202
tp60
a(S'72'
p61
S'7529'
p62
F16.192208123455032
tp63
a(S'7529'
p64
S'72'
p65
F16.192208123455032
tp66
a(S'72'
p67
S'5377'
p68
F134.33765340137057
tp69
a(S'5377'
p70
S'72'
p71
F134.33765340137057
tp72
a(S'72'
p73
S'7528'
p74
F16.924664304744567
tp75
a(S'7528'
p76
S'72'
p77
F16.924664304744567
tp78
a(S'73'
p79
S'5097'
p80
F9.477038370303518
tp81
a(S'5097'
p82
S'73'
p83
F9.477038370303518
tp84
a(S'73'
p85
S'7819'
p86
F8.326533103601987
tp87
a(S'7819'
p88
S'73'
p89
F8.326533103601987
tp90
a(S'73'
p91
S'463'
p92
F154.34567492655276
tp93
a(S'463'
p94
S'73'
p95
F154.34567492655276
tp96
a(S'73'
p97
S'191'
p98
F54.07821678661324
tp99
a(S'191'
p100
S'73'
p101
F54.07821678661324
tp102
a(S'74'
p103
S'456'
p104
F10.695262255026128
tp105
a(S'456'
p106
S'74'
p107
F10.695262255026128
tp108
a(S'74'
p109
S'461'
p110
F11.382801862781305
tp111
a(S'461'
p112
S'74'
p113
F11.382801862781305
tp114
a(S'74'
p115
S'8495'
p116
F12.671143021409154
tp117
a(S'8495'
p118
S'74'
p119
F12.671143021409154
tp120
a(S'74'
p121
S'8152'
p122
F14.019949107139144
tp123
a(S'8152'
p124
S'74'
p125
F14.019949107139144
tp126
a(S'75'
p127
S'463'
p128
F6.698280105167093
tp129
a(S'463'
p130
S'75'
p131
F6.698280105167093
tp132
a(S'75'
p133
S'3385'
p134
F13.276489641934374
tp135
a(S'3385'
p136
S'75'
p137
F13.276489641934374
tp138
a(S'75'
p139
S'8152'
p140
F315.389318673596
tp141
a(S'8152'
p142
S'75'
p143
F315.389318673596
tp144
a(S'75'
p145
S'6648'
p146
F55.61179154040841
tp147
a(S'6648'
p148
S'75'
p149
F55.61179154040841
tp150
a(S'76'
p151
S'5277'
p152
F42.496401875545324
tp153
a(S'5277'
p154
S'76'
p155
F42.496401875545324
tp156
a(S'76'
p157
S'6648'
p158
F17.016286522252212
tp159
a(S'6648'
p160
S'76'
p161
F17.016286522252212
tp162
a(S'76'
p163
S'6748'
p164
F19.696857356572565
tp165
a(S'6748'
p166
S'76'
p167
F19.696857356572565
tp168
a(S'76'
p169
S'5090'
p170
F313.63245995195047
tp171
a(S'5090'
p172
S'76'
p173
F313.63245995195047
tp174
a(S'77'
p175
S'986'
p176
F10.73706153054408
tp177
a(S'986'
p178
S'77'
p179
F10.73706153054408
tp180
a(S'77'
p181
S'5907'
p182
F66.43656035683613
tp183
a(S'5907'
p184
S'77'
p185
F66.43656035683613
tp186
a(S'77'
p187
S'252'
p188
F131.82031210388212
tp189
a(S'252'
p190
S'77'
p191
F131.82031210388212
tp192
a(S'77'
p193
S'5869'
p194
F14.36143794848708
tp195
a(S'5869'
p196
S'77'
p197
F14.36143794848708
tp198
a(S'78'
p199
S'379'
p200
F36.284757141560355
tp201
a(S'379'
p202
S'78'
p203
F36.284757141560355
tp204
a(S'78'
p205
S'79'
p206
F63.38239612381081
tp207
a(S'79'
p208
S'78'
p209
F63.38239612381081
tp210
a(S'78'
p211
S'5790'
p212
F29.823571561886617
tp213
a(S'5790'
p214
S'78'
p215
F29.823571561886617
tp216
a(S'79'
p217
S'961'
p218
F20.3599412499206
tp219
a(S'961'
p220
S'79'
p221
F20.3599412499206
tp222
a(S'79'
p223
S'8671'
p224
F211.81421122663187
tp225
a(S'8671'
p226
S'79'
p227
F211.81421122663187
tp228
a(S'79'
p229
S'938'
p230
F55.956943980947635
tp231
a(S'938'
p232
S'79'
p233
F55.956943980947635
tp234
a(S'83'
p235
S'84'
p236
F75.12435908134763
tp237
a(S'84'
p238
S'83'
p239
F75.12435908134763
tp240
a(S'83'
p241
S'4025'
p242
F4.201504101309876
tp243
a(S'4025'
p244
S'83'
p245
F4.201504101309876
tp246
a(S'83'
p247
S'5008'
p248
F54.76267137559312
tp249
a(S'5008'
p250
S'83'
p251
F54.76267137559312
tp252
a(S'84'
p253
S'3199'
p254
F83.04822530002315
tp255
a(S'3199'
p256
S'84'
p257
F83.04822530002315
tp258
a(S'84'
p259
S'85'
p260
F92.00853542152782
tp261
a(S'85'
p262
S'84'
p263
F92.00853542152782
tp264
a(S'85'
p265
S'3198'
p266
F42.70481797058164
tp267
a(S'3198'
p268
S'85'
p269
F42.70481797058164
tp270
a(S'85'
p271
S'975'
p272
F17.25000049420724
tp273
a(S'975'
p274
S'85'
p275
F17.25000049420724
tp276
a(S'86'
p277
S'3198'
p278
F71.85710956402352
tp279
a(S'3198'
p280
S'86'
p281
F71.85710956402352
tp282
a(S'86'
p283
S'3099'
p284
F28.69312922139047
tp285
a(S'3099'
p286
S'86'
p287
F28.69312922139047
tp288
a(S'86'
p289
S'229'
p290
F122.03184563330323
tp291
a(S'229'
p292
S'86'
p293
F122.03184563330323
tp294
a(S'87'
p295
S'3099'
p296
F10.117315944448272
tp297
a(S'3099'
p298
S'87'
p299
F10.117315944448272
tp300
a(S'87'
p301
S'949'
p302
F149.34618096119877
tp303
a(S'949'
p304
S'87'
p305
F149.34618096119877
tp306
a(S'87'
p307
S'6751'
p308
F60.0034855452848
tp309
a(S'6751'
p310
S'87'
p311
F60.0034855452848
tp312
a(S'88'
p313
S'6751'
p314
F28.228928699778592
tp315
a(S'6751'
p316
S'88'
p317
F28.228928699778592
tp318
a(S'88'
p319
S'3952'
p320
F5.524574066830278
tp321
a(S'3952'
p322
S'88'
p323
F5.524574066830278
tp324
a(S'88'
p325
S'953'
p326
F59.14042933109745
tp327
a(S'953'
p328
S'88'
p329
F59.14042933109745
tp330
a(S'89'
p331
S'5680'
p332
F13.149386088693761
tp333
a(S'5680'
p334
S'89'
p335
F13.149386088693761
tp336
a(S'89'
p337
S'238'
p338
F41.323898793286396
tp339
a(S'238'
p340
S'89'
p341
F41.323898793286396
tp342
a(S'89'
p343
S'97'
p344
F15.579061607620567
tp345
a(S'97'
p346
S'89'
p347
F15.579061607620567
tp348
a(S'90'
p349
S'457'
p350
F7.944797230976033
tp351
a(S'457'
p352
S'90'
p353
F7.944797230976033
tp354
a(S'90'
p355
S'5377'
p356
F256.1911525613852
tp357
a(S'5377'
p358
S'90'
p359
F256.1911525613852
tp360
a(S'90'
p361
S'5515'
p362
F176.09232702353066
tp363
a(S'5515'
p364
S'90'
p365
F176.09232702353066
tp366
a(S'90'
p367
S'8671'
p368
F61.64444445727284
tp369
a(S'8671'
p370
S'90'
p371
F61.64444445727284
tp372
a(S'91'
p373
S'941'
p374
F64.76867478210116
tp375
a(S'941'
p376
S'91'
p377
F64.76867478210116
tp378
a(S'91'
p379
S'1089'
p380
F57.71554110497718
tp381
a(S'1089'
p382
S'91'
p383
F57.71554110497718
tp384
a(S'91'
p385
S'937'
p386
F165.21612170145494
tp387
a(S'937'
p388
S'91'
p389
F165.21612170145494
tp390
a(S'91'
p391
S'126'
p392
F175.3218810961849
tp393
a(S'126'
p394
S'91'
p395
F175.3218810961849
tp396
a(S'92'
p397
S'6589'
p398
F42.404519478295974
tp399
a(S'6589'
p400
S'92'
p401
F42.404519478295974
tp402
a(S'92'
p403
S'5898'
p404
F36.689432267814915
tp405
a(S'5898'
p406
S'92'
p407
F36.689432267814915
tp408
a(S'92'
p409
S'864'
p410
F71.43638743484271
tp411
a(S'864'
p412
S'92'
p413
F71.43638743484271
tp414
a(S'92'
p415
S'5206'
p416
F80.34313286528248
tp417
a(S'5206'
p418
S'92'
p419
F80.34313286528248
tp420
a(S'93'
p421
S'4820'
p422
F57.91855034568489
tp423
a(S'4820'
p424
S'93'
p425
F57.91855034568489
tp426
a(S'93'
p427
S'966'
p428
F284.7471489778773
tp429
a(S'966'
p430
S'93'
p431
F284.7471489778773
tp432
a(S'93'
p433
S'124'
p434
F28.223853208687242
tp435
a(S'124'
p436
S'93'
p437
F28.223853208687242
tp438
a(S'94'
p439
S'4985'
p440
F12.349053094226255
tp441
a(S'4985'
p442
S'94'
p443
F12.349053094226255
tp444
a(S'94'
p445
S'239'
p446
F69.48565435660394
tp447
a(S'239'
p448
S'94'
p449
F69.48565435660394
tp450
a(S'94'
p451
S'4983'
p452
F48.0839212186267
tp453
a(S'4983'
p454
S'94'
p455
F48.0839212186267
tp456
a(S'97'
p457
S'5510'
p458
F11.334767276971073
tp459
a(S'5510'
p460
S'97'
p461
F11.334767276971073
tp462
a(S'97'
p463
S'4974'
p464
F32.765104992812645
tp465
a(S'4974'
p466
S'97'
p467
F32.765104992812645
tp468
a(S'98'
p469
S'830'
p470
F111.17466313007759
tp471
a(S'830'
p472
S'98'
p473
F111.17466313007759
tp474
a(S'101'
p475
S'1107'
p476
F20.278511180645914
tp477
a(S'1107'
p478
S'101'
p479
F20.278511180645914
tp480
a(S'101'
p481
S'126'
p482
F12.69515779956581
tp483
a(S'126'
p484
S'101'
p485
F12.69515779956581
tp486
a(S'101'
p487
S'5205'
p488
F40.76314032340654
tp489
a(S'5205'
p490
S'101'
p491
F40.76314032340654
tp492
a(S'102'
p493
S'814'
p494
F52.669624482975934
tp495
a(S'814'
p496
S'102'
p497
F52.669624482975934
tp498
a(S'102'
p499
S'5736'
p500
F172.3614250639722
tp501
a(S'5736'
p502
S'102'
p503
F172.3614250639722
tp504
a(S'102'
p505
S'8734'
p506
F55.5176462586961
tp507
a(S'8734'
p508
S'102'
p509
F55.5176462586961
tp510
a(S'102'
p511
S'937'
p512
F52.309454154957926
tp513
a(S'937'
p514
S'102'
p515
F52.309454154957926
tp516
a(S'103'
p517
S'466'
p518
F8.47528732930016
tp519
a(S'466'
p520
S'103'
p521
F8.47528732930016
tp522
a(S'103'
p523
S'8735'
p524
F97.25283112279098
tp525
a(S'8735'
p526
S'103'
p527
F97.25283112279098
tp528
a(S'103'
p529
S'5742'
p530
F110.98184006014866
tp531
a(S'5742'
p532
S'103'
p533
F110.98184006014866
tp534
a(S'103'
p535
S'8734'
p536
F72.29591022639624
tp537
a(S'8734'
p538
S'103'
p539
F72.29591022639624
tp540
a(S'104'
p541
S'5379'
p542
F5.02036624925478
tp543
a(S'5379'
p544
S'104'
p545
F5.02036624925478
tp546
a(S'104'
p547
S'8832'
p548
F8.790147892760235
tp549
a(S'8832'
p550
S'104'
p551
F8.790147892760235
tp552
a(S'104'
p553
S'8831'
p554
F7.673318042046247
tp555
a(S'8831'
p556
S'104'
p557
F7.673318042046247
tp558
a(S'104'
p559
S'105'
p560
F32.60550523734529
tp561
a(S'105'
p562
S'104'
p563
F32.60550523734529
tp564
a(S'109'
p565
S'7613'
p566
F123.25333330033997
tp567
a(S'7613'
p568
S'109'
p569
F123.25333330033997
tp570
a(S'111'
p571
S'460'
p572
F9.745148111562639
tp573
a(S'460'
p574
S'111'
p575
F9.745148111562639
tp576
a(S'111'
p577
S'5090'
p578
F14.349243397387363
tp579
a(S'5090'
p580
S'111'
p581
F14.349243397387363
tp582
a(S'111'
p583
S'8495'
p584
F55.58246683333412
tp585
a(S'8495'
p586
S'111'
p587
F55.58246683333412
tp588
a(S'122'
p589
S'5005'
p590
F43.68938508476173
tp591
a(S'5005'
p592
S'122'
p593
F43.68938508476173
tp594
a(S'122'
p595
S'850'
p596
F44.66908113700072
tp597
a(S'850'
p598
S'122'
p599
F44.66908113700072
tp600
a(S'122'
p601
S'3195'
p602
F88.3051146817428
tp603
a(S'3195'
p604
S'122'
p605
F88.3051146817428
tp606
a(S'122'
p607
S'882'
p608
F170.61199962309212
tp609
a(S'882'
p610
S'122'
p611
F170.61199962309212
tp612
a(S'123'
p613
S'5785'
p614
F5.606038511933019
tp615
a(S'5785'
p616
S'123'
p617
F5.606038511933019
tp618
a(S'123'
p619
S'5780'
p620
F68.11323015176306
tp621
a(S'5780'
p622
S'123'
p623
F68.11323015176306
tp624
a(S'123'
p625
S'1432'
p626
F69.45044380773386
tp627
a(S'1432'
p628
S'123'
p629
F69.45044380773386
tp630
a(S'124'
p631
S'5107'
p632
F9.118919433309847
tp633
a(S'5107'
p634
S'124'
p635
F9.118919433309847
tp636
a(S'124'
p637
S'125'
p638
F42.16842464848047
tp639
a(S'125'
p640
S'124'
p641
F42.16842464848047
tp642
a(S'125'
p643
S'973'
p644
F23.06479994187695
tp645
a(S'973'
p646
S'125'
p647
F23.06479994187695
tp648
a(S'125'
p649
S'4818'
p650
F101.82874874382404
tp651
a(S'4818'
p652
S'125'
p653
F101.82874874382404
tp654
a(S'126'
p655
S'5755'
p656
F23.93439767315229
tp657
a(S'5755'
p658
S'126'
p659
F23.93439767315229
tp660
a(S'127'
p661
S'1103'
p662
F52.79068282942598
tp663
a(S'1103'
p664
S'127'
p665
F52.79068282942598
tp666
a(S'138'
p667
S'139'
p668
F9.44580609275633
tp669
a(S'139'
p670
S'138'
p671
F9.44580609275633
tp672
a(S'138'
p673
S'470'
p674
F8.203467254418454
tp675
a(S'470'
p676
S'138'
p677
F8.203467254418454
tp678
a(S'138'
p679
S'388'
p680
F49.923881458948685
tp681
a(S'388'
p682
S'138'
p683
F49.923881458948685
tp684
a(S'138'
p685
S'4940'
p686
F74.4820392592712
tp687
a(S'4940'
p688
S'138'
p689
F74.4820392592712
tp690
a(S'139'
p691
S'469'
p692
F8.042091082389085
tp693
a(S'469'
p694
S'139'
p695
F8.042091082389085
tp696
a(S'139'
p697
S'388'
p698
F49.58168312085118
tp699
a(S'388'
p700
S'139'
p701
F49.58168312085118
tp702
a(S'139'
p703
S'6595'
p704
F30.761535770723512
tp705
a(S'6595'
p706
S'139'
p707
F30.761535770723512
tp708
a(S'140'
p709
S'142'
p710
F38.16169227491926
tp711
a(S'142'
p712
S'140'
p713
F38.16169227491926
tp714
a(S'140'
p715
S'4804'
p716
F78.20568265656243
tp717
a(S'4804'
p718
S'140'
p719
F78.20568265656243
tp720
a(S'140'
p721
S'389'
p722
F42.32067346527707
tp723
a(S'389'
p724
S'140'
p725
F42.32067346527707
tp726
a(S'142'
p727
S'389'
p728
F62.396660862183296
tp729
a(S'389'
p730
S'142'
p731
F62.396660862183296
tp732
a(S'142'
p733
S'2117'
p734
F93.39127839826419
tp735
a(S'2117'
p736
S'142'
p737
F93.39127839826419
tp738
a(S'151'
p739
S'254'
p740
F80.30613943334157
tp741
a(S'254'
p742
S'151'
p743
F80.30613943334157
tp744
a(S'151'
p745
S'6595'
p746
F70.42244198176259
tp747
a(S'6595'
p748
S'151'
p749
F70.42244198176259
tp750
a(S'151'
p751
S'4777'
p752
F61.78521959954556
tp753
a(S'4777'
p754
S'151'
p755
F61.78521959954556
tp756
a(S'152'
p757
S'8410'
p758
F11.779753601965151
tp759
a(S'8410'
p760
S'152'
p761
F11.779753601965151
tp762
a(S'152'
p763
S'382'
p764
F38.44580220564826
tp765
a(S'382'
p766
S'152'
p767
F38.44580220564826
tp768
a(S'152'
p769
S'8414'
p770
F22.665993678953146
tp771
a(S'8414'
p772
S'152'
p773
F22.665993678953146
tp774
a(S'152'
p775
S'254'
p776
F128.17137197954526
tp777
a(S'254'
p778
S'152'
p779
F128.17137197954526
tp780
a(S'153'
p781
S'7495'
p782
F112.26175456937584
tp783
a(S'7495'
p784
S'153'
p785
F112.26175456937584
tp786
a(S'159'
p787
S'5092'
p788
F14.90793981257107
tp789
a(S'5092'
p790
S'159'
p791
F14.90793981257107
tp792
a(S'159'
p793
S'2804'
p794
F62.00228521047831
tp795
a(S'2804'
p796
S'159'
p797
F62.00228521047831
tp798
a(S'159'
p799
S'8268'
p800
F8.071382109035149
tp801
a(S'8268'
p802
S'159'
p803
F8.071382109035149
tp804
a(S'160'
p805
S'8464'
p806
F7.462842410320329
tp807
a(S'8464'
p808
S'160'
p809
F7.462842410320329
tp810
a(S'160'
p811
S'7912'
p812
F16.654615603358476
tp813
a(S'7912'
p814
S'160'
p815
F16.654615603358476
tp816
a(S'160'
p817
S'3987'
p818
F5.91114586583958
tp819
a(S'3987'
p820
S'160'
p821
F5.91114586583958
tp822
a(S'161'
p823
S'162'
p824
F12.330394255112449
tp825
a(S'162'
p826
S'161'
p827
F12.330394255112449
tp828
a(S'161'
p829
S'4996'
p830
F7.450639875811545
tp831
a(S'4996'
p832
S'161'
p833
F7.450639875811545
tp834
a(S'161'
p835
S'8359'
p836
F22.313362342776816
tp837
a(S'8359'
p838
S'161'
p839
F22.313362342776816
tp840
a(S'162'
p841
S'3787'
p842
F15.339726382041132
tp843
a(S'3787'
p844
S'162'
p845
F15.339726382041132
tp846
a(S'162'
p847
S'8167'
p848
F65.92899337205841
tp849
a(S'8167'
p850
S'162'
p851
F65.92899337205841
tp852
a(S'162'
p853
S'8096'
p854
F6.365747200649821
tp855
a(S'8096'
p856
S'162'
p857
F6.365747200649821
tp858
a(S'163'
p859
S'3784'
p860
F8.494396402065467
tp861
a(S'3784'
p862
S'163'
p863
F8.494396402065467
tp864
a(S'163'
p865
S'7857'
p866
F9.058450265027474
tp867
a(S'7857'
p868
S'163'
p869
F9.058450265027474
tp870
a(S'163'
p871
S'4995'
p872
F35.14986700266212
tp873
a(S'4995'
p874
S'163'
p875
F35.14986700266212
tp876
a(S'163'
p877
S'3987'
p878
F12.490094810911359
tp879
a(S'3987'
p880
S'163'
p881
F12.490094810911359
tp882
a(S'165'
p883
S'8416'
p884
F9.930700780751694
tp885
a(S'8416'
p886
S'165'
p887
F9.930700780751694
tp888
a(S'165'
p889
S'381'
p890
F8.76700893199127
tp891
a(S'381'
p892
S'165'
p893
F8.76700893199127
tp894
a(S'165'
p895
S'7937'
p896
F8.13392829532063
tp897
a(S'7937'
p898
S'165'
p899
F8.13392829532063
tp900
a(S'165'
p901
S'8411'
p902
F30.1630081599209
tp903
a(S'8411'
p904
S'165'
p905
F30.1630081599209
tp906
a(S'166'
p907
S'1080'
p908
F32.889534797853656
tp909
a(S'1080'
p910
S'166'
p911
F32.889534797853656
tp912
a(S'166'
p913
S'3656'
p914
F10.595071432129515
tp915
a(S'3656'
p916
S'166'
p917
F10.595071432129515
tp918
a(S'166'
p919
S'3091'
p920
F46.55807914870746
tp921
a(S'3091'
p922
S'166'
p923
F46.55807914870746
tp924
a(S'167'
p925
S'3087'
p926
F63.87766630478437
tp927
a(S'3087'
p928
S'167'
p929
F63.87766630478437
tp930
a(S'167'
p931
S'168'
p932
F119.2190951614999
tp933
a(S'168'
p934
S'167'
p935
F119.2190951614999
tp936
a(S'167'
p937
S'4968'
p938
F162.59245616808113
tp939
a(S'4968'
p940
S'167'
p941
F162.59245616808113
tp942
a(S'168'
p943
S'423'
p944
F148.79400309829268
tp945
a(S'423'
p946
S'168'
p947
F148.79400309829268
tp948
a(S'168'
p949
S'8416'
p950
F177.85278859661446
tp951
a(S'8416'
p952
S'168'
p953
F177.85278859661446
tp954
a(S'168'
p955
S'383'
p956
F142.99540335128256
tp957
a(S'383'
p958
S'168'
p959
F142.99540335128256
tp960
a(S'169'
p961
S'1031'
p962
F26.902174590015868
tp963
a(S'1031'
p964
S'169'
p965
F26.902174590015868
tp966
a(S'169'
p967
S'7268'
p968
F19.186744061594112
tp969
a(S'7268'
p970
S'169'
p971
F19.186744061594112
tp972
a(S'169'
p973
S'927'
p974
F15.094271721867704
tp975
a(S'927'
p976
S'169'
p977
F15.094271721867704
tp978
a(S'170'
p979
S'8129'
p980
F26.50687261791862
tp981
a(S'8129'
p982
S'170'
p983
F26.50687261791862
tp984
a(S'170'
p985
S'8128'
p986
F1.874176298719511
tp987
a(S'8128'
p988
S'170'
p989
F1.874176298719511
tp990
a(S'170'
p991
S'171'
p992
F64.23390865909899
tp993
a(S'171'
p994
S'170'
p995
F64.23390865909899
tp996
a(S'171'
p997
S'8130'
p998
F10.177348160465181
tp999
a(S'8130'
p1000
S'171'
p1001
F10.177348160465181
tp1002
a(S'171'
p1003
S'965'
p1004
F10.449279689798903
tp1005
a(S'965'
p1006
S'171'
p1007
F10.449279689798903
tp1008
a(S'171'
p1009
S'436'
p1010
F25.57280613580897
tp1011
a(S'436'
p1012
S'171'
p1013
F25.57280613580897
tp1014
a(S'176'
p1015
S'459'
p1016
F8.303861863055982
tp1017
a(S'459'
p1018
S'176'
p1019
F8.303861863055982
tp1020
a(S'176'
p1021
S'5515'
p1022
F159.66149827941857
tp1023
a(S'5515'
p1024
S'176'
p1025
F159.66149827941857
tp1026
a(S'177'
p1027
S'8561'
p1028
F37.81962769356612
tp1029
a(S'8561'
p1030
S'177'
p1031
F37.81962769356612
tp1032
a(S'177'
p1033
S'7856'
p1034
F67.95725019356672
tp1035
a(S'7856'
p1036
S'177'
p1037
F67.95725019356672
tp1038
a(S'177'
p1039
S'459'
p1040
F126.0975402492942
tp1041
a(S'459'
p1042
S'177'
p1043
F126.0975402492942
tp1044
a(S'191'
p1045
S'7906'
p1046
F6.980686701719251
tp1047
a(S'7906'
p1048
S'191'
p1049
F6.980686701719251
tp1050
a(S'191'
p1051
S'3553'
p1052
F28.051727759698416
tp1053
a(S'3553'
p1054
S'191'
p1055
F28.051727759698416
tp1056
a(S'192'
p1057
S'8360'
p1058
F10.065839315437316
tp1059
a(S'8360'
p1060
S'192'
p1061
F10.065839315437316
tp1062
a(S'192'
p1063
S'8359'
p1064
F42.00971574117809
tp1065
a(S'8359'
p1066
S'192'
p1067
F42.00971574117809
tp1068
a(S'192'
p1069
S'2803'
p1070
F54.198361520950684
tp1071
a(S'2803'
p1072
S'192'
p1073
F54.198361520950684
tp1074
a(S'197'
p1075
S'5727'
p1076
F5.87607477506847
tp1077
a(S'5727'
p1078
S'197'
p1079
F5.87607477506847
tp1080
a(S'197'
p1081
S'5732'
p1082
F5.318231643091693
tp1083
a(S'5732'
p1084
S'197'
p1085
F5.318231643091693
tp1086
a(S'197'
p1087
S'3135'
p1088
F91.49699592516923
tp1089
a(S'3135'
p1090
S'197'
p1091
F91.49699592516923
tp1092
a(S'197'
p1093
S'872'
p1094
F45.27903637416997
tp1095
a(S'872'
p1096
S'197'
p1097
F45.27903637416997
tp1098
a(S'201'
p1099
S'8832'
p1100
F273.0259303786804
tp1101
a(S'8832'
p1102
S'201'
p1103
F273.0259303786804
tp1104
a(S'210'
p1105
S'872'
p1106
F4.027950965294802
tp1107
a(S'872'
p1108
S'210'
p1109
F4.027950965294802
tp1110
a(S'210'
p1111
S'5729'
p1112
F5.527470227989203
tp1113
a(S'5729'
p1114
S'210'
p1115
F5.527470227989203
tp1116
a(S'210'
p1117
S'818'
p1118
F25.708205847936096
tp1119
a(S'818'
p1120
S'210'
p1121
F25.708205847936096
tp1122
a(S'212'
p1123
S'5392'
p1124
F53.81297282170612
tp1125
a(S'5392'
p1126
S'212'
p1127
F53.81297282170612
tp1128
a(S'214'
p1129
S'3933'
p1130
F63.9619868833948
tp1131
a(S'3933'
p1132
S'214'
p1133
F63.9619868833948
tp1134
a(S'214'
p1135
S'6772'
p1136
F18.62167004598769
tp1137
a(S'6772'
p1138
S'214'
p1139
F18.62167004598769
tp1140
a(S'214'
p1141
S'8625'
p1142
F16.976010650459934
tp1143
a(S'8625'
p1144
S'214'
p1145
F16.976010650459934
tp1146
a(S'214'
p1147
S'5168'
p1148
F36.36750033757149
tp1149
a(S'5168'
p1150
S'214'
p1151
F36.36750033757149
tp1152
a(S'214'
p1153
S'4025'
p1154
F88.18247834280372
tp1155
a(S'4025'
p1156
S'214'
p1157
F88.18247834280372
tp1158
a(S'215'
p1159
S'5358'
p1160
F95.44585867434215
tp1161
a(S'5358'
p1162
S'215'
p1163
F95.44585867434215
tp1164
a(S'215'
p1165
S'464'
p1166
F72.62466446100481
tp1167
a(S'464'
p1168
S'215'
p1169
F72.62466446100481
tp1170
a(S'215'
p1171
S'8625'
p1172
F202.5361221375124
tp1173
a(S'8625'
p1174
S'215'
p1175
F202.5361221375124
tp1176
a(S'216'
p1177
S'465'
p1178
F5.64208902524194
tp1179
a(S'465'
p1180
S'216'
p1181
F5.64208902524194
tp1182
a(S'216'
p1183
S'5912'
p1184
F72.98149745780012
tp1185
a(S'5912'
p1186
S'216'
p1187
F72.98149745780012
tp1188
a(S'216'
p1189
S'3932'
p1190
F207.94601585677276
tp1191
a(S'3932'
p1192
S'216'
p1193
F207.94601585677276
tp1194
a(S'218'
p1195
S'6538'
p1196
F69.46191713837833
tp1197
a(S'6538'
p1198
S'218'
p1199
F69.46191713837833
tp1200
a(S'218'
p1201
S'222'
p1202
F42.53068770199109
tp1203
a(S'222'
p1204
S'218'
p1205
F42.53068770199109
tp1206
a(S'218'
p1207
S'6537'
p1208
F71.63035121359962
tp1209
a(S'6537'
p1210
S'218'
p1211
F71.63035121359962
tp1212
a(S'219'
p1213
S'220'
p1214
F84.92891756616181
tp1215
a(S'220'
p1216
S'219'
p1217
F84.92891756616181
tp1218
a(S'219'
p1219
S'6538'
p1220
F52.61526254508138
tp1221
a(S'6538'
p1222
S'219'
p1223
F52.61526254508138
tp1224
a(S'219'
p1225
S'5517'
p1226
F10.49968843935638
tp1227
a(S'5517'
p1228
S'219'
p1229
F10.49968843935638
tp1230
a(S'220'
p1231
S'4802'
p1232
F27.314347787316763
tp1233
a(S'4802'
p1234
S'220'
p1235
F27.314347787316763
tp1236
a(S'220'
p1237
S'221'
p1238
F85.27230493783304
tp1239
a(S'221'
p1240
S'220'
p1241
F85.27230493783304
tp1242
a(S'221'
p1243
S'962'
p1244
F21.68640072280422
tp1245
a(S'962'
p1246
S'221'
p1247
F21.68640072280422
tp1248
a(S'221'
p1249
S'6537'
p1250
F65.30260425029559
tp1251
a(S'6537'
p1252
S'221'
p1253
F65.30260425029559
tp1254
a(S'222'
p1255
S'5008'
p1256
F51.86127019901079
tp1257
a(S'5008'
p1258
S'222'
p1259
F51.86127019901079
tp1260
a(S'222'
p1261
S'983'
p1262
F28.16401504987612
tp1263
a(S'983'
p1264
S'222'
p1265
F28.16401504987612
tp1266
a(S'223'
p1267
S'962'
p1268
F62.804585974509
tp1269
a(S'962'
p1270
S'223'
p1271
F62.804585974509
tp1272
a(S'223'
p1273
S'5616'
p1274
F2.575747282841167
tp1275
a(S'5616'
p1276
S'223'
p1277
F2.575747282841167
tp1278
a(S'223'
p1279
S'2042'
p1280
F46.54494353927445
tp1281
a(S'2042'
p1282
S'223'
p1283
F46.54494353927445
tp1284
a(S'223'
p1285
S'6748'
p1286
F39.94501651301354
tp1287
a(S'6748'
p1288
S'223'
p1289
F39.94501651301354
tp1290
a(S'224'
p1291
S'5277'
p1292
F25.21075868079768
tp1293
a(S'5277'
p1294
S'224'
p1295
F25.21075868079768
tp1296
a(S'224'
p1297
S'986'
p1298
F70.50624971334798
tp1299
a(S'986'
p1300
S'224'
p1301
F70.50624971334798
tp1302
a(S'224'
p1303
S'225'
p1304
F88.11436468600859
tp1305
a(S'225'
p1306
S'224'
p1307
F88.11436468600859
tp1308
a(S'224'
p1309
S'5090'
p1310
F350.4772067005545
tp1311
a(S'5090'
p1312
S'224'
p1313
F350.4772067005545
tp1314
a(S'225'
p1315
S'5616'
p1316
F51.33850733950694
tp1317
a(S'5616'
p1318
S'225'
p1319
F51.33850733950694
tp1320
a(S'225'
p1321
S'4041'
p1322
F36.55655551406167
tp1323
a(S'4041'
p1324
S'225'
p1325
F36.55655551406167
tp1326
a(S'226'
p1327
S'4041'
p1328
F4.193333271268303
tp1329
a(S'4041'
p1330
S'226'
p1331
F4.193333271268303
tp1332
a(S'226'
p1333
S'974'
p1334
F77.81337826713377
tp1335
a(S'974'
p1336
S'226'
p1337
F77.81337826713377
tp1338
a(S'226'
p1339
S'956'
p1340
F93.41905865814687
tp1341
a(S'956'
p1342
S'226'
p1343
F93.41905865814687
tp1344
a(S'227'
p1345
S'987'
p1346
F74.86026922668935
tp1347
a(S'987'
p1348
S'227'
p1349
F74.86026922668935
tp1350
a(S'227'
p1351
S'944'
p1352
F62.65539090984385
tp1353
a(S'944'
p1354
S'227'
p1355
F62.65539090984385
tp1356
a(S'227'
p1357
S'974'
p1358
F78.16850978682264
tp1359
a(S'974'
p1360
S'227'
p1361
F78.16850978682264
tp1362
a(S'228'
p1363
S'3704'
p1364
F1.598570101142409
tp1365
a(S'3704'
p1366
S'228'
p1367
F1.598570101142409
tp1368
a(S'228'
p1369
S'944'
p1370
F69.30395808916455
tp1371
a(S'944'
p1372
S'228'
p1373
F69.30395808916455
tp1374
a(S'228'
p1375
S'983'
p1376
F177.32975566892642
tp1377
a(S'983'
p1378
S'228'
p1379
F177.32975566892642
tp1380
a(S'228'
p1381
S'231'
p1382
F58.947709808854796
tp1383
a(S'231'
p1384
S'228'
p1385
F58.947709808854796
tp1386
a(S'229'
p1387
S'231'
p1388
F15.945243030570417
tp1389
a(S'231'
p1390
S'229'
p1391
F15.945243030570417
tp1392
a(S'229'
p1393
S'3705'
p1394
F6.853335932279331
tp1395
a(S'3705'
p1396
S'229'
p1397
F6.853335932279331
tp1398
a(S'230'
p1399
S'3199'
p1400
F25.880344156788034
tp1401
a(S'3199'
p1402
S'230'
p1403
F25.880344156788034
tp1404
a(S'230'
p1405
S'3704'
p1406
F46.75051909033514
tp1407
a(S'3704'
p1408
S'230'
p1409
F46.75051909033514
tp1410
a(S'230'
p1411
S'3705'
p1412
F34.33772722237826
tp1413
a(S'3705'
p1414
S'230'
p1415
F34.33772722237826
tp1416
a(S'231'
p1417
S'232'
p1418
F53.59871425397123
tp1419
a(S'232'
p1420
S'231'
p1421
F53.59871425397123
tp1422
a(S'232'
p1423
S'949'
p1424
F50.569047706209766
tp1425
a(S'949'
p1426
S'232'
p1427
F50.569047706209766
tp1428
a(S'232'
p1429
S'4975'
p1430
F8.60917697818185
tp1431
a(S'4975'
p1432
S'232'
p1433
F8.60917697818185
tp1434
a(S'233'
p1435
S'5881'
p1436
F82.67650729422175
tp1437
a(S'5881'
p1438
S'233'
p1439
F82.67650729422175
tp1440
a(S'233'
p1441
S'5131'
p1442
F65.073979406867
tp1443
a(S'5131'
p1444
S'233'
p1445
F65.073979406867
tp1446
a(S'233'
p1447
S'988'
p1448
F80.28193027336829
tp1449
a(S'988'
p1450
S'233'
p1451
F80.28193027336829
tp1452
a(S'233'
p1453
S'843'
p1454
F104.36475373094028
tp1455
a(S'843'
p1456
S'233'
p1457
F104.36475373094028
tp1458
a(S'234'
p1459
S'5218'
p1460
F23.83123763456326
tp1461
a(S'5218'
p1462
S'234'
p1463
F23.83123763456326
tp1464
a(S'234'
p1465
S'3462'
p1466
F21.40318840152002
tp1467
a(S'3462'
p1468
S'234'
p1469
F21.40318840152002
tp1470
a(S'234'
p1471
S'5131'
p1472
F6.880483800092422
tp1473
a(S'5131'
p1474
S'234'
p1475
F6.880483800092422
tp1476
a(S'235'
p1477
S'5219'
p1478
F6.054757786791286
tp1479
a(S'5219'
p1480
S'235'
p1481
F6.054757786791286
tp1482
a(S'235'
p1483
S'850'
p1484
F70.8043615122626
tp1485
a(S'850'
p1486
S'235'
p1487
F70.8043615122626
tp1488
a(S'235'
p1489
S'4972'
p1490
F55.19428717649588
tp1491
a(S'4972'
p1492
S'235'
p1493
F55.19428717649588
tp1494
a(S'236'
p1495
S'4973'
p1496
F5.993648232095566
tp1497
a(S'4973'
p1498
S'236'
p1499
F5.993648232095566
tp1500
a(S'236'
p1501
S'237'
p1502
F102.83985316761357
tp1503
a(S'237'
p1504
S'236'
p1505
F102.83985316761357
tp1506
a(S'236'
p1507
S'4971'
p1508
F50.73210127559361
tp1509
a(S'4971'
p1510
S'236'
p1511
F50.73210127559361
tp1512
a(S'237'
p1513
S'239'
p1514
F99.61247198412315
tp1515
a(S'239'
p1516
S'237'
p1517
F99.61247198412315
tp1518
a(S'237'
p1519
S'6618'
p1520
F50.22476449810327
tp1521
a(S'6618'
p1522
S'237'
p1523
F50.22476449810327
tp1524
a(S'237'
p1525
S'5879'
p1526
F106.9623494475011
tp1527
a(S'5879'
p1528
S'237'
p1529
F106.9623494475011
tp1530
a(S'238'
p1531
S'5881'
p1532
F55.621041414839695
tp1533
a(S'5881'
p1534
S'238'
p1535
F55.621041414839695
tp1536
a(S'238'
p1537
S'6618'
p1538
F82.48268791497422
tp1539
a(S'6618'
p1540
S'238'
p1541
F82.48268791497422
tp1542
a(S'239'
p1543
S'966'
p1544
F20.23337205848424
tp1545
a(S'966'
p1546
S'239'
p1547
F20.23337205848424
tp1548
a(S'249'
p1549
S'255'
p1550
F8.03495811834871
tp1551
a(S'255'
p1552
S'249'
p1553
F8.03495811834871
tp1554
a(S'249'
p1555
S'889'
p1556
F137.5012618200615
tp1557
a(S'889'
p1558
S'249'
p1559
F137.5012618200615
tp1560
a(S'249'
p1561
S'5749'
p1562
F97.7441067371921
tp1563
a(S'5749'
p1564
S'249'
p1565
F97.7441067371921
tp1566
a(S'249'
p1567
S'5740'
p1568
F70.47932358574334
tp1569
a(S'5740'
p1570
S'249'
p1571
F70.47932358574334
tp1572
a(S'252'
p1573
S'1101'
p1574
F72.33171318161583
tp1575
a(S'1101'
p1576
S'252'
p1577
F72.33171318161583
tp1578
a(S'252'
p1579
S'260'
p1580
F40.44956240192721
tp1581
a(S'260'
p1582
S'252'
p1583
F40.44956240192721
tp1584
a(S'252'
p1585
S'1102'
p1586
F52.47508879539557
tp1587
a(S'1102'
p1588
S'252'
p1589
F52.47508879539557
tp1590
a(S'254'
p1591
S'4778'
p1592
F61.36743886873496
tp1593
a(S'4778'
p1594
S'254'
p1595
F61.36743886873496
tp1596
a(S'255'
p1597
S'5736'
p1598
F28.917430537954964
tp1599
a(S'5736'
p1600
S'255'
p1601
F28.917430537954964
tp1602
a(S'255'
p1603
S'979'
p1604
F76.06258398283046
tp1605
a(S'979'
p1606
S'255'
p1607
F76.06258398283046
tp1608
a(S'257'
p1609
S'5780'
p1610
F15.41517653709071
tp1611
a(S'5780'
p1612
S'257'
p1613
F15.41517653709071
tp1614
a(S'257'
p1615
S'264'
p1616
F107.1063438321058
tp1617
a(S'264'
p1618
S'257'
p1619
F107.1063438321058
tp1620
a(S'257'
p1621
S'817'
p1622
F83.3313045274254
tp1623
a(S'817'
p1624
S'257'
p1625
F83.3313045274254
tp1626
a(S'260'
p1627
S'354'
p1628
F27.10704742080799
tp1629
a(S'354'
p1630
S'260'
p1631
F27.10704742080799
tp1632
a(S'262'
p1633
S'4778'
p1634
F200.8262607467281
tp1635
a(S'4778'
p1636
S'262'
p1637
F200.8262607467281
tp1638
a(S'262'
p1639
S'1037'
p1640
F30.38422662267445
tp1641
a(S'1037'
p1642
S'262'
p1643
F30.38422662267445
tp1644
a(S'262'
p1645
S'264'
p1646
F79.8700845664294
tp1647
a(S'264'
p1648
S'262'
p1649
F79.8700845664294
tp1650
a(S'264'
p1651
S'4777'
p1652
F195.07894135791932
tp1653
a(S'4777'
p1654
S'264'
p1655
F195.07894135791932
tp1656
a(S'268'
p1657
S'5089'
p1658
F11.515460625514468
tp1659
a(S'5089'
p1660
S'268'
p1661
F11.515460625514468
tp1662
a(S'268'
p1663
S'3708'
p1664
F254.78061421753662
tp1665
a(S'3708'
p1666
S'268'
p1667
F254.78061421753662
tp1668
a(S'268'
p1669
S'8543'
p1670
F9.065253204904378
tp1671
a(S'8543'
p1672
S'268'
p1673
F9.065253204904378
tp1674
a(S'268'
p1675
S'8663'
p1676
F105.53371578277086
tp1677
a(S'8663'
p1678
S'268'
p1679
F105.53371578277086
tp1680
a(S'328'
p1681
S'3116'
p1682
F7.449410164073183
tp1683
a(S'3116'
p1684
S'328'
p1685
F7.449410164073183
tp1686
a(S'328'
p1687
S'3200'
p1688
F145.5660281509662
tp1689
a(S'3200'
p1690
S'328'
p1691
F145.5660281509662
tp1692
a(S'340'
p1693
S'8663'
p1694
F12.107689602978965
tp1695
a(S'8663'
p1696
S'340'
p1697
F12.107689602978965
tp1698
a(S'340'
p1699
S'1161'
p1700
F154.99691072585145
tp1701
a(S'1161'
p1702
S'340'
p1703
F154.99691072585145
tp1704
a(S'340'
p1705
S'5089'
p1706
F105.77580345593346
tp1707
a(S'5089'
p1708
S'340'
p1709
F105.77580345593346
tp1710
a(S'340'
p1711
S'5855'
p1712
F38.951268224525
tp1713
a(S'5855'
p1714
S'340'
p1715
F38.951268224525
tp1716
a(S'347'
p1717
S'368'
p1718
F8.82787005557466
tp1719
a(S'368'
p1720
S'347'
p1721
F8.82787005557466
tp1722
a(S'347'
p1723
S'379'
p1724
F116.91839564671386
tp1725
a(S'379'
p1726
S'347'
p1727
F116.91839564671386
tp1728
a(S'347'
p1729
S'375'
p1730
F81.53251288853761
tp1731
a(S'375'
p1732
S'347'
p1733
F81.53251288853761
tp1734
a(S'356'
p1735
S'7540'
p1736
F2.054549377054993
tp1737
a(S'7540'
p1738
S'356'
p1739
F2.054549377054993
tp1740
a(S'356'
p1741
S'842'
p1742
F73.025638620422
tp1743
a(S'842'
p1744
S'356'
p1745
F73.025638620422
tp1746
a(S'356'
p1747
S'5744'
p1748
F46.62892653188368
tp1749
a(S'5744'
p1750
S'356'
p1751
F46.62892653188368
tp1752
a(S'360'
p1753
S'369'
p1754
F8.729038556304634
tp1755
a(S'369'
p1756
S'360'
p1757
F8.729038556304634
tp1758
a(S'361'
p1759
S'375'
p1760
F81.24539533487834
tp1761
a(S'375'
p1762
S'361'
p1763
F81.24539533487834
tp1764
a(S'361'
p1765
S'5099'
p1766
F149.119934883591
tp1767
a(S'5099'
p1768
S'361'
p1769
F149.119934883591
tp1770
a(S'362'
p1771
S'368'
p1772
F21.64222448501502
tp1773
a(S'368'
p1774
S'362'
p1775
F21.64222448501502
tp1776
a(S'364'
p1777
S'369'
p1778
F7.170960004875943
tp1779
a(S'369'
p1780
S'364'
p1781
F7.170960004875943
tp1782
a(S'365'
p1783
S'5868'
p1784
F77.22105021287499
tp1785
a(S'5868'
p1786
S'365'
p1787
F77.22105021287499
tp1788
a(S'365'
p1789
S'5099'
p1790
F9.445313752876151
tp1791
a(S'5099'
p1792
S'365'
p1793
F9.445313752876151
tp1794
a(S'365'
p1795
S'6746'
p1796
F80.72825598593566
tp1797
a(S'6746'
p1798
S'365'
p1799
F80.72825598593566
tp1800
a(S'366'
p1801
S'4768'
p1802
F4.725033552782492
tp1803
a(S'4768'
p1804
S'366'
p1805
F4.725033552782492
tp1806
a(S'366'
p1807
S'378'
p1808
F122.40897851031356
tp1809
a(S'378'
p1810
S'366'
p1811
F122.40897851031356
tp1812
a(S'366'
p1813
S'878'
p1814
F62.50554164922081
tp1815
a(S'878'
p1816
S'366'
p1817
F62.50554164922081
tp1818
a(S'368'
p1819
S'4980'
p1820
F34.181135349594186
tp1821
a(S'4980'
p1822
S'368'
p1823
F34.181135349594186
tp1824
a(S'369'
p1825
S'375'
p1826
F103.65254634640655
tp1827
a(S'375'
p1828
S'369'
p1829
F103.65254634640655
tp1830
a(S'371'
p1831
S'4037'
p1832
F73.08089072977005
tp1833
a(S'4037'
p1834
S'371'
p1835
F73.08089072977005
tp1836
a(S'371'
p1837
S'5099'
p1838
F86.66557688228505
tp1839
a(S'5099'
p1840
S'371'
p1841
F86.66557688228505
tp1842
a(S'371'
p1843
S'950'
p1844
F92.15432296176142
tp1845
a(S'950'
p1846
S'371'
p1847
F92.15432296176142
tp1848
a(S'371'
p1849
S'375'
p1850
F133.0941505813202
tp1851
a(S'375'
p1852
S'371'
p1853
F133.0941505813202
tp1854
a(S'372'
p1855
S'5739'
p1856
F110.83536481976437
tp1857
a(S'5739'
p1858
S'372'
p1859
F110.83536481976437
tp1860
a(S'372'
p1861
S'5744'
p1862
F79.05541425009436
tp1863
a(S'5744'
p1864
S'372'
p1865
F79.05541425009436
tp1866
a(S'372'
p1867
S'961'
p1868
F217.28819688749945
tp1869
a(S'961'
p1870
S'372'
p1871
F217.28819688749945
tp1872
a(S'374'
p1873
S'3809'
p1874
F47.96043783915324
tp1875
a(S'3809'
p1876
S'374'
p1877
F47.96043783915324
tp1878
a(S'374'
p1879
S'3092'
p1880
F121.5927207444
tp1881
a(S'3092'
p1882
S'374'
p1883
F121.5927207444
tp1884
a(S'374'
p1885
S'3084'
p1886
F27.67589154190655
tp1887
a(S'3084'
p1888
S'374'
p1889
F27.67589154190655
tp1890
a(S'378'
p1891
S'3092'
p1892
F143.8205621734667
tp1893
a(S'3092'
p1894
S'378'
p1895
F143.8205621734667
tp1896
a(S'378'
p1897
S'3087'
p1898
F109.93288188726572
tp1899
a(S'3087'
p1900
S'378'
p1901
F109.93288188726572
tp1902
a(S'378'
p1903
S'3808'
p1904
F10.854280590038382
tp1905
a(S'3808'
p1906
S'378'
p1907
F10.854280590038382
tp1908
a(S'379'
p1909
S'950'
p1910
F55.93885056428429
tp1911
a(S'950'
p1912
S'379'
p1913
F55.93885056428429
tp1914
a(S'380'
p1915
S'1102'
p1916
F33.00090510335876
tp1917
a(S'1102'
p1918
S'380'
p1919
F33.00090510335876
tp1920
a(S'381'
p1921
S'8420'
p1922
F4.398661379210918
tp1923
a(S'8420'
p1924
S'381'
p1925
F4.398661379210918
tp1926
a(S'381'
p1927
S'8416'
p1928
F9.581713233488873
tp1929
a(S'8416'
p1930
S'381'
p1931
F9.581713233488873
tp1932
a(S'381'
p1933
S'382'
p1934
F31.132471287496678
tp1935
a(S'382'
p1936
S'381'
p1937
F31.132471287496678
tp1938
a(S'381'
p1939
S'8414'
p1940
F38.63230431221508
tp1941
a(S'8414'
p1942
S'381'
p1943
F38.63230431221508
tp1944
a(S'382'
p1945
S'383'
p1946
F220.64796634055295
tp1947
a(S'383'
p1948
S'382'
p1949
F220.64796634055295
tp1950
a(S'383'
p1951
S'1037'
p1952
F66.8282261117127
tp1953
a(S'1037'
p1954
S'383'
p1955
F66.8282261117127
tp1956
a(S'383'
p1957
S'1036'
p1958
F118.90193484769691
tp1959
a(S'1036'
p1960
S'383'
p1961
F118.90193484769691
tp1962
a(S'384'
p1963
S'4968'
p1964
F51.43302654133497
tp1965
a(S'4968'
p1966
S'384'
p1967
F51.43302654133497
tp1968
a(S'384'
p1969
S'3564'
p1970
F45.43855656899658
tp1971
a(S'3564'
p1972
S'384'
p1973
F45.43855656899658
tp1974
a(S'384'
p1975
S'4692'
p1976
F20.766581028693377
tp1977
a(S'4692'
p1978
S'384'
p1979
F20.766581028693377
tp1980
a(S'385'
p1981
S'7316'
p1982
F88.5620934419799
tp1983
a(S'7316'
p1984
S'385'
p1985
F88.5620934419799
tp1986
a(S'385'
p1987
S'1029'
p1988
F8.990969807399404
tp1989
a(S'1029'
p1990
S'385'
p1991
F8.990969807399404
tp1992
a(S'385'
p1993
S'3361'
p1994
F67.72341846105329
tp1995
a(S'3361'
p1996
S'385'
p1997
F67.72341846105329
tp1998
a(S'386'
p1999
S'4695'
p2000
F29.497548741399218
tp2001
a(S'4695'
p2002
S'386'
p2003
F29.497548741399218
tp2004
a(S'386'
p2005
S'8259'
p2006
F39.5037358297382
tp2007
a(S'8259'
p2008
S'386'
p2009
F39.5037358297382
tp2010
a(S'386'
p2011
S'823'
p2012
F30.226044883124157
tp2013
a(S'823'
p2014
S'386'
p2015
F30.226044883124157
tp2016
a(S'386'
p2017
S'7031'
p2018
F83.07246660901616
tp2019
a(S'7031'
p2020
S'386'
p2021
F83.07246660901616
tp2022
a(S'387'
p2023
S'1033'
p2024
F45.04196407823644
tp2025
a(S'1033'
p2026
S'387'
p2027
F45.04196407823644
tp2028
a(S'387'
p2029
S'1030'
p2030
F66.94913757949892
tp2031
a(S'1030'
p2032
S'387'
p2033
F66.94913757949892
tp2034
a(S'387'
p2035
S'8129'
p2036
F74.88170490941667
tp2037
a(S'8129'
p2038
S'387'
p2039
F74.88170490941667
tp2040
a(S'388'
p2041
S'4941'
p2042
F2.927123617432472
tp2043
a(S'4941'
p2044
S'388'
p2045
F2.927123617432472
tp2046
a(S'388'
p2047
S'6595'
p2048
F60.64888480058812
tp2049
a(S'6595'
p2050
S'388'
p2051
F60.64888480058812
tp2052
a(S'389'
p2053
S'469'
p2054
F68.85732588446999
tp2055
a(S'469'
p2056
S'389'
p2057
F68.85732588446999
tp2058
a(S'393'
p2059
S'7521'
p2060
F11.342322611905757
tp2061
a(S'7521'
p2062
S'393'
p2063
F11.342322611905757
tp2064
a(S'393'
p2065
S'7522'
p2066
F6.24588118600188
tp2067
a(S'7522'
p2068
S'393'
p2069
F6.24588118600188
tp2070
a(S'393'
p2071
S'5740'
p2072
F57.02575221627686
tp2073
a(S'5740'
p2074
S'393'
p2075
F57.02575221627686
tp2076
a(S'393'
p2077
S'7528'
p2078
F20.750190921228498
tp2079
a(S'7528'
p2080
S'393'
p2081
F20.750190921228498
tp2082
a(S'398'
p2083
S'423'
p2084
F91.40684436268954
tp2085
a(S'423'
p2086
S'398'
p2087
F91.40684436268954
tp2088
a(S'406'
p2089
S'5515'
p2090
F62.87875717903996
tp2091
a(S'5515'
p2092
S'406'
p2093
F62.87875717903996
tp2094
a(S'412'
p2095
S'5929'
p2096
F101.45897921199777
tp2097
a(S'5929'
p2098
S'412'
p2099
F101.45897921199777
tp2100
a(S'414'
p2101
S'7973'
p2102
F26.17487283588817
tp2103
a(S'7973'
p2104
S'414'
p2105
F26.17487283588817
tp2106
a(S'414'
p2107
S'2890'
p2108
F59.839574138994266
tp2109
a(S'2890'
p2110
S'414'
p2111
F59.839574138994266
tp2112
a(S'414'
p2113
S'7975'
p2114
F48.752000949349316
tp2115
a(S'7975'
p2116
S'414'
p2117
F48.752000949349316
tp2118
a(S'423'
p2119
S'2890'
p2120
F2.822790230641978
tp2121
a(S'2890'
p2122
S'423'
p2123
F2.822790230641978
tp2124
a(S'429'
p2125
S'3921'
p2126
F34.81970178212771
tp2127
a(S'3921'
p2128
S'429'
p2129
F34.81970178212771
tp2130
a(S'429'
p2131
S'4769'
p2132
F28.48117510234556
tp2133
a(S'4769'
p2134
S'429'
p2135
F28.48117510234556
tp2136
a(S'429'
p2137
S'1066'
p2138
F210.39438092977767
tp2139
a(S'1066'
p2140
S'429'
p2141
F210.39438092977767
tp2142
a(S'436'
p2143
S'7030'
p2144
F14.86347065727068
tp2145
a(S'7030'
p2146
S'436'
p2147
F14.86347065727068
tp2148
a(S'436'
p2149
S'5733'
p2150
F39.72625630130668
tp2151
a(S'5733'
p2152
S'436'
p2153
F39.72625630130668
tp2154
a(S'436'
p2155
S'8130'
p2156
F25.69981461442518
tp2157
a(S'8130'
p2158
S'436'
p2159
F25.69981461442518
tp2160
a(S'436'
p2161
S'1079'
p2162
F121.92708246782882
tp2163
a(S'1079'
p2164
S'436'
p2165
F121.92708246782882
tp2166
a(S'437'
p2167
S'8199'
p2168
F20.38392526700677
tp2169
a(S'8199'
p2170
S'437'
p2171
F20.38392526700677
tp2172
a(S'437'
p2173
S'8150'
p2174
F7.076823356744367
tp2175
a(S'8150'
p2176
S'437'
p2177
F7.076823356744367
tp2178
a(S'437'
p2179
S'8148'
p2180
F6.063741026298111
tp2181
a(S'8148'
p2182
S'437'
p2183
F6.063741026298111
tp2184
a(S'438'
p2185
S'6774'
p2186
F64.32267390996473
tp2187
a(S'6774'
p2188
S'438'
p2189
F64.32267390996473
tp2190
a(S'454'
p2191
S'8167'
p2192
F5.745646368299189
tp2193
a(S'8167'
p2194
S'454'
p2195
F5.745646368299189
tp2196
a(S'454'
p2197
S'8097'
p2198
F6.687228563095885
tp2199
a(S'8097'
p2200
S'454'
p2201
F6.687228563095885
tp2202
a(S'454'
p2203
S'455'
p2204
F130.46335829149052
tp2205
a(S'455'
p2206
S'454'
p2207
F130.46335829149052
tp2208
a(S'455'
p2209
S'3553'
p2210
F27.214455815007035
tp2211
a(S'3553'
p2212
S'455'
p2213
F27.214455815007035
tp2214
a(S'455'
p2215
S'463'
p2216
F109.02261660433149
tp2217
a(S'463'
p2218
S'455'
p2219
F109.02261660433149
tp2220
a(S'456'
p2221
S'462'
p2222
F11.544779341327079
tp2223
a(S'462'
p2224
S'456'
p2225
F11.544779341327079
tp2226
a(S'456'
p2227
S'8153'
p2228
F14.007810483503645
tp2229
a(S'8153'
p2230
S'456'
p2231
F14.007810483503645
tp2232
a(S'456'
p2233
S'8161'
p2234
F13.990179957699631
tp2235
a(S'8161'
p2236
S'456'
p2237
F13.990179957699631
tp2238
a(S'457'
p2239
S'458'
p2240
F180.3484301020342
tp2241
a(S'458'
p2242
S'457'
p2243
F180.3484301020342
tp2244
a(S'457'
p2245
S'2038'
p2246
F104.27711267039209
tp2247
a(S'2038'
p2248
S'457'
p2249
F104.27711267039209
tp2250
a(S'457'
p2251
S'2039'
p2252
F20.986962940031063
tp2253
a(S'2039'
p2254
S'457'
p2255
F20.986962940031063
tp2256
a(S'458'
p2257
S'4899'
p2258
F106.94026610226001
tp2259
a(S'4899'
p2260
S'458'
p2261
F106.94026610226001
tp2262
a(S'458'
p2263
S'459'
p2264
F156.47390253568093
tp2265
a(S'459'
p2266
S'458'
p2267
F156.47390253568093
tp2268
a(S'459'
p2269
S'777'
p2270
F149.54899391991478
tp2271
a(S'777'
p2272
S'459'
p2273
F149.54899391991478
tp2274
a(S'460'
p2275
S'724'
p2276
F149.96284650539482
tp2277
a(S'724'
p2278
S'460'
p2279
F149.96284650539482
tp2280
a(S'460'
p2281
S'8496'
p2282
F58.886114088157925
tp2283
a(S'8496'
p2284
S'460'
p2285
F58.886114088157925
tp2286
a(S'461'
p2287
S'462'
p2288
F11.829238294029606
tp2289
a(S'462'
p2290
S'461'
p2291
F11.829238294029606
tp2292
a(S'461'
p2293
S'8145'
p2294
F16.702090228665313
tp2295
a(S'8145'
p2296
S'461'
p2297
F16.702090228665313
tp2298
a(S'461'
p2299
S'8496'
p2300
F11.870803970012002
tp2301
a(S'8496'
p2302
S'461'
p2303
F11.870803970012002
tp2304
a(S'462'
p2305
S'8164'
p2306
F14.138421085773281
tp2307
a(S'8164'
p2308
S'462'
p2309
F14.138421085773281
tp2310
a(S'462'
p2311
S'8144'
p2312
F16.684213039344257
tp2313
a(S'8144'
p2314
S'462'
p2315
F16.684213039344257
tp2316
a(S'463'
p2317
S'3554'
p2318
F15.36218612696196
tp2319
a(S'3554'
p2320
S'463'
p2321
F15.36218612696196
tp2322
a(S'463'
p2323
S'7007'
p2324
F172.92488733020866
tp2325
a(S'7007'
p2326
S'463'
p2327
F172.92488733020866
tp2328
a(S'464'
p2329
S'465'
p2330
F18.054854305456253
tp2331
a(S'465'
p2332
S'464'
p2333
F18.054854305456253
tp2334
a(S'464'
p2335
S'8663'
p2336
F201.72072212513123
tp2337
a(S'8663'
p2338
S'464'
p2339
F201.72072212513123
tp2340
a(S'464'
p2341
S'7007'
p2342
F42.1736759355872
tp2343
a(S'7007'
p2344
S'464'
p2345
F42.1736759355872
tp2346
a(S'465'
p2347
S'1161'
p2348
F62.48651334652902
tp2349
a(S'1161'
p2350
S'465'
p2351
F62.48651334652902
tp2352
a(S'466'
p2353
S'467'
p2354
F202.6727121373091
tp2355
a(S'467'
p2356
S'466'
p2357
F202.6727121373091
tp2358
a(S'466'
p2359
S'2533'
p2360
F137.2788310742786
tp2361
a(S'2533'
p2362
S'466'
p2363
F137.2788310742786
tp2364
a(S'466'
p2365
S'598'
p2366
F133.41544634111753
tp2367
a(S'598'
p2368
S'466'
p2369
F133.41544634111753
tp2370
a(S'467'
p2371
S'468'
p2372
F76.68411132428908
tp2373
a(S'468'
p2374
S'467'
p2375
F76.68411132428908
tp2376
a(S'468'
p2377
S'8674'
p2378
F94.86224657876961
tp2379
a(S'8674'
p2380
S'468'
p2381
F94.86224657876961
tp2382
a(S'469'
p2383
S'470'
p2384
F9.984619181243254
tp2385
a(S'470'
p2386
S'469'
p2387
F9.984619181243254
tp2388
a(S'469'
p2389
S'784'
p2390
F136.0390139568982
tp2391
a(S'784'
p2392
S'469'
p2393
F136.0390139568982
tp2394
a(S'470'
p2395
S'4803'
p2396
F31.269798092175034
tp2397
a(S'4803'
p2398
S'470'
p2399
F31.269798092175034
tp2400
a(S'470'
p2401
S'4804'
p2402
F30.76775112214729
tp2403
a(S'4804'
p2404
S'470'
p2405
F30.76775112214729
tp2406
a(S'471'
p2407
S'8418'
p2408
F5.240957984925796
tp2409
a(S'8418'
p2410
S'471'
p2411
F5.240957984925796
tp2412
a(S'471'
p2413
S'8419'
p2414
F11.939817831087991
tp2415
a(S'8419'
p2416
S'471'
p2417
F11.939817831087991
tp2418
a(S'471'
p2419
S'8415'
p2420
F32.0225814766501
tp2421
a(S'8415'
p2422
S'471'
p2423
F32.0225814766501
tp2424
a(S'471'
p2425
S'3176'
p2426
F150.3854520875421
tp2427
a(S'3176'
p2428
S'471'
p2429
F150.3854520875421
tp2430
a(S'473'
p2431
S'8690'
p2432
F14.612979501376524
tp2433
a(S'8690'
p2434
S'473'
p2435
F14.612979501376524
tp2436
a(S'473'
p2437
S'3129'
p2438
F18.96097751468589
tp2439
a(S'3129'
p2440
S'473'
p2441
F18.96097751468589
tp2442
a(S'473'
p2443
S'3176'
p2444
F91.24617643653156
tp2445
a(S'3176'
p2446
S'473'
p2447
F91.24617643653156
tp2448
a(S'570'
p2449
S'1123'
p2450
F14.124978039894323
tp2451
a(S'1123'
p2452
S'570'
p2453
F14.124978039894323
tp2454
a(S'570'
p2455
S'5130'
p2456
F43.98509259974206
tp2457
a(S'5130'
p2458
S'570'
p2459
F43.98509259974206
tp2460
a(S'570'
p2461
S'579'
p2462
F147.46799850963833
tp2463
a(S'579'
p2464
S'570'
p2465
F147.46799850963833
tp2466
a(S'579'
p2467
S'6582'
p2468
F173.42254141058743
tp2469
a(S'6582'
p2470
S'579'
p2471
F173.42254141058743
tp2472
a(S'592'
p2473
S'5129'
p2474
F8.795486930100234
tp2475
a(S'5129'
p2476
S'592'
p2477
F8.795486930100234
tp2478
a(S'592'
p2479
S'5130'
p2480
F15.497772051296032
tp2481
a(S'5130'
p2482
S'592'
p2483
F15.497772051296032
tp2484
a(S'592'
p2485
S'1123'
p2486
F50.149784324585994
tp2487
a(S'1123'
p2488
S'592'
p2489
F50.149784324585994
tp2490
a(S'598'
p2491
S'8698'
p2492
F3.194456245079615
tp2493
a(S'8698'
p2494
S'598'
p2495
F3.194456245079615
tp2496
a(S'598'
p2497
S'606'
p2498
F102.49403092077134
tp2499
a(S'606'
p2500
S'598'
p2501
F102.49403092077134
tp2502
a(S'606'
p2503
S'5929'
p2504
F24.229512612446406
tp2505
a(S'5929'
p2506
S'606'
p2507
F24.229512612446406
tp2508
a(S'692'
p2509
S'3567'
p2510
F10.349379096996364
tp2511
a(S'3567'
p2512
S'692'
p2513
F10.349379096996364
tp2514
a(S'692'
p2515
S'8417'
p2516
F14.143077907176712
tp2517
a(S'8417'
p2518
S'692'
p2519
F14.143077907176712
tp2520
a(S'692'
p2521
S'859'
p2522
F36.07527018943799
tp2523
a(S'859'
p2524
S'692'
p2525
F36.07527018943799
tp2526
a(S'703'
p2527
S'8417'
p2528
F65.06936033492886
tp2529
a(S'8417'
p2530
S'703'
p2531
F65.06936033492886
tp2532
a(S'705'
p2533
S'727'
p2534
F11.914431129242558
tp2535
a(S'727'
p2536
S'705'
p2537
F11.914431129242558
tp2538
a(S'705'
p2539
S'5877'
p2540
F39.94618941573571
tp2541
a(S'5877'
p2542
S'705'
p2543
F39.94618941573571
tp2544
a(S'724'
p2545
S'6574'
p2546
F41.13172951079856
tp2547
a(S'6574'
p2548
S'724'
p2549
F41.13172951079856
tp2550
a(S'724'
p2551
S'6575'
p2552
F20.90067263011
tp2553
a(S'6575'
p2554
S'724'
p2555
F20.90067263011
tp2556
a(S'727'
p2557
S'2176'
p2558
F17.39175022978464
tp2559
a(S'2176'
p2560
S'727'
p2561
F17.39175022978464
tp2562
a(S'727'
p2563
S'747'
p2564
F133.18429225013614
tp2565
a(S'747'
p2566
S'727'
p2567
F133.18429225013614
tp2568
a(S'736'
p2569
S'793'
p2570
F11.069901500895453
tp2571
a(S'793'
p2572
S'736'
p2573
F11.069901500895453
tp2574
a(S'736'
p2575
S'782'
p2576
F21.3415563452262
tp2577
a(S'782'
p2578
S'736'
p2579
F21.3415563452262
tp2580
a(S'736'
p2581
S'777'
p2582
F23.755835925394216
tp2583
a(S'777'
p2584
S'736'
p2585
F23.755835925394216
tp2586
a(S'737'
p2587
S'793'
p2588
F8.021446024924208
tp2589
a(S'793'
p2590
S'737'
p2591
F8.021446024924208
tp2592
a(S'743'
p2593
S'1977'
p2594
F23.71711562765612
tp2595
a(S'1977'
p2596
S'743'
p2597
F23.71711562765612
tp2598
a(S'743'
p2599
S'1974'
p2600
F55.653162612235924
tp2601
a(S'1974'
p2602
S'743'
p2603
F55.653162612235924
tp2604
a(S'747'
p2605
S'784'
p2606
F194.36200068881664
tp2607
a(S'784'
p2608
S'747'
p2609
F194.36200068881664
tp2610
a(S'761'
p2611
S'6575'
p2612
F13.89335154605738
tp2613
a(S'6575'
p2614
S'761'
p2615
F13.89335154605738
tp2616
a(S'777'
p2617
S'6574'
p2618
F18.856630499338742
tp2619
a(S'6574'
p2620
S'777'
p2621
F18.856630499338742
tp2622
a(S'782'
p2623
S'799'
p2624
F19.946352078204775
tp2625
a(S'799'
p2626
S'782'
p2627
F19.946352078204775
tp2628
a(S'782'
p2629
S'793'
p2630
F30.370556754208124
tp2631
a(S'793'
p2632
S'782'
p2633
F30.370556754208124
tp2634
a(S'784'
p2635
S'8410'
p2636
F169.9570168059364
tp2637
a(S'8410'
p2638
S'784'
p2639
F169.9570168059364
tp2640
a(S'789'
p2641
S'8417'
p2642
F42.838948600944676
tp2643
a(S'8417'
p2644
S'789'
p2645
F42.838948600944676
tp2646
a(S'812'
p2647
S'823'
p2648
F126.51322146180249
tp2649
a(S'823'
p2650
S'812'
p2651
F126.51322146180249
tp2652
a(S'812'
p2653
S'824'
p2654
F269.32870781348845
tp2655
a(S'824'
p2656
S'812'
p2657
F269.32870781348845
tp2658
a(S'812'
p2659
S'1073'
p2660
F17.867163459998658
tp2661
a(S'1073'
p2662
S'812'
p2663
F17.867163459998658
tp2664
a(S'812'
p2665
S'1079'
p2666
F130.84651464187783
tp2667
a(S'1079'
p2668
S'812'
p2669
F130.84651464187783
tp2670
a(S'814'
p2671
S'815'
p2672
F47.1960590656669
tp2673
a(S'815'
p2674
S'814'
p2675
F47.1960590656669
tp2676
a(S'814'
p2677
S'1042'
p2678
F42.667345766377075
tp2679
a(S'1042'
p2680
S'814'
p2681
F42.667345766377075
tp2682
a(S'814'
p2683
S'831'
p2684
F206.3985783452366
tp2685
a(S'831'
p2686
S'814'
p2687
F206.3985783452366
tp2688
a(S'815'
p2689
S'827'
p2690
F39.26806016776055
tp2691
a(S'827'
p2692
S'815'
p2693
F39.26806016776055
tp2694
a(S'815'
p2695
S'5783'
p2696
F44.19854611615278
tp2697
a(S'5783'
p2698
S'815'
p2699
F44.19854611615278
tp2700
a(S'816'
p2701
S'2527'
p2702
F5.883628898584246
tp2703
a(S'2527'
p2704
S'816'
p2705
F5.883628898584246
tp2706
a(S'817'
p2707
S'1038'
p2708
F17.789954511805043
tp2709
a(S'1038'
p2710
S'817'
p2711
F17.789954511805043
tp2712
a(S'817'
p2713
S'1039'
p2714
F54.51584463053932
tp2715
a(S'1039'
p2716
S'817'
p2717
F54.51584463053932
tp2718
a(S'818'
p2719
S'830'
p2720
F8.027397833067937
tp2721
a(S'830'
p2722
S'818'
p2723
F8.027397833067937
tp2724
a(S'818'
p2725
S'1083'
p2726
F75.47948777231456
tp2727
a(S'1083'
p2728
S'818'
p2729
F75.47948777231456
tp2730
a(S'821'
p2731
S'4943'
p2732
F15.65248518128666
tp2733
a(S'4943'
p2734
S'821'
p2735
F15.65248518128666
tp2736
a(S'821'
p2737
S'1432'
p2738
F83.29189525072995
tp2739
a(S'1432'
p2740
S'821'
p2741
F83.29189525072995
tp2742
a(S'821'
p2743
S'822'
p2744
F36.35262167177757
tp2745
a(S'822'
p2746
S'821'
p2747
F36.35262167177757
tp2748
a(S'821'
p2749
S'8673'
p2750
F81.18295715114945
tp2751
a(S'8673'
p2752
S'821'
p2753
F81.18295715114945
tp2754
a(S'822'
p2755
S'4939'
p2756
F23.389609698357248
tp2757
a(S'4939'
p2758
S'822'
p2759
F23.389609698357248
tp2760
a(S'822'
p2761
S'4940'
p2762
F34.32919908632191
tp2763
a(S'4940'
p2764
S'822'
p2765
F34.32919908632191
tp2766
a(S'823'
p2767
S'3807'
p2768
F31.688833108161273
tp2769
a(S'3807'
p2770
S'823'
p2771
F31.688833108161273
tp2772
a(S'827'
p2773
S'2527'
p2774
F41.84988118626117
tp2775
a(S'2527'
p2776
S'827'
p2777
F41.84988118626117
tp2778
a(S'827'
p2779
S'4944'
p2780
F2.968227975037115
tp2781
a(S'4944'
p2782
S'827'
p2783
F2.968227975037115
tp2784
a(S'830'
p2785
S'907'
p2786
F38.512048216438345
tp2787
a(S'907'
p2788
S'830'
p2789
F38.512048216438345
tp2790
a(S'830'
p2791
S'8831'
p2792
F97.29847481558615
tp2793
a(S'8831'
p2794
S'830'
p2795
F97.29847481558615
tp2796
a(S'831'
p2797
S'1039'
p2798
F39.67863862030852
tp2799
a(S'1039'
p2800
S'831'
p2801
F39.67863862030852
tp2802
a(S'831'
p2803
S'7821'
p2804
F193.99023430865506
tp2805
a(S'7821'
p2806
S'831'
p2807
F193.99023430865506
tp2808
a(S'831'
p2809
S'1089'
p2810
F46.26536000951409
tp2811
a(S'1089'
p2812
S'831'
p2813
F46.26536000951409
tp2814
a(S'841'
p2815
S'878'
p2816
F42.13860764788429
tp2817
a(S'878'
p2818
S'841'
p2819
F42.13860764788429
tp2820
a(S'841'
p2821
S'7597'
p2822
F26.056644523990613
tp2823
a(S'7597'
p2824
S'841'
p2825
F26.056644523990613
tp2826
a(S'841'
p2827
S'3657'
p2828
F28.62106579219976
tp2829
a(S'3657'
p2830
S'841'
p2831
F28.62106579219976
tp2832
a(S'842'
p2833
S'7523'
p2834
F44.477094148416846
tp2835
a(S'7523'
p2836
S'842'
p2837
F44.477094148416846
tp2838
a(S'842'
p2839
S'889'
p2840
F108.81665280009673
tp2841
a(S'889'
p2842
S'842'
p2843
F108.81665280009673
tp2844
a(S'842'
p2845
S'7533'
p2846
F6.922979147142018
tp2847
a(S'7533'
p2848
S'842'
p2849
F6.922979147142018
tp2850
a(S'843'
p2851
S'850'
p2852
F130.26654598632686
tp2853
a(S'850'
p2854
S'843'
p2855
F130.26654598632686
tp2856
a(S'843'
p2857
S'939'
p2858
F89.60726129347611
tp2859
a(S'939'
p2860
S'843'
p2861
F89.60726129347611
tp2862
a(S'843'
p2863
S'938'
p2864
F83.81837296665084
tp2865
a(S'938'
p2866
S'843'
p2867
F83.81837296665084
tp2868
a(S'848'
p2869
S'3787'
p2870
F28.615804182327274
tp2871
a(S'3787'
p2872
S'848'
p2873
F28.615804182327274
tp2874
a(S'848'
p2875
S'3788'
p2876
F15.44832733033666
tp2877
a(S'3788'
p2878
S'848'
p2879
F15.44832733033666
tp2880
a(S'848'
p2881
S'8462'
p2882
F0.638992829888521
tp2883
a(S'8462'
p2884
S'848'
p2885
F0.638992829888521
tp2886
a(S'854'
p2887
S'5129'
p2888
F19.5287655293983
tp2889
a(S'5129'
p2890
S'854'
p2891
F19.5287655293983
tp2892
a(S'859'
p2893
S'5877'
p2894
F52.420816252107514
tp2895
a(S'5877'
p2896
S'859'
p2897
F52.420816252107514
tp2898
a(S'859'
p2899
S'8409'
p2900
F41.36165728968027
tp2901
a(S'8409'
p2902
S'859'
p2903
F41.36165728968027
tp2904
a(S'862'
p2905
S'1100'
p2906
F7.753092700533771
tp2907
a(S'1100'
p2908
S'862'
p2909
F7.753092700533771
tp2910
a(S'862'
p2911
S'895'
p2912
F10.994227774639631
tp2913
a(S'895'
p2914
S'862'
p2915
F10.994227774639631
tp2916
a(S'862'
p2917
S'7490'
p2918
F115.7972491319212
tp2919
a(S'7490'
p2920
S'862'
p2921
F115.7972491319212
tp2922
a(S'864'
p2923
S'991'
p2924
F111.47624241040424
tp2925
a(S'991'
p2926
S'864'
p2927
F111.47624241040424
tp2928
a(S'864'
p2929
S'877'
p2930
F139.87710997899345
tp2931
a(S'877'
p2932
S'864'
p2933
F139.87710997899345
tp2934
a(S'867'
p2935
S'870'
p2936
F64.0732262471779
tp2937
a(S'870'
p2938
S'867'
p2939
F64.0732262471779
tp2940
a(S'870'
p2941
S'5726'
p2942
F44.69517598639623
tp2943
a(S'5726'
p2944
S'870'
p2945
F44.69517598639623
tp2946
a(S'870'
p2947
S'5021'
p2948
F58.811467071816736
tp2949
a(S'5021'
p2950
S'870'
p2951
F58.811467071816736
tp2952
a(S'872'
p2953
S'907'
p2954
F7.152484160683074
tp2955
a(S'907'
p2956
S'872'
p2957
F7.152484160683074
tp2958
a(S'877'
p2959
S'941'
p2960
F75.90822686200319
tp2961
a(S'941'
p2962
S'877'
p2963
F75.90822686200319
tp2964
a(S'877'
p2965
S'5751'
p2966
F68.77515648050132
tp2967
a(S'5751'
p2968
S'877'
p2969
F68.77515648050132
tp2970
a(S'877'
p2971
S'4818'
p2972
F54.91403952345135
tp2973
a(S'4818'
p2974
S'877'
p2975
F54.91403952345135
tp2976
a(S'878'
p2977
S'3652'
p2978
F93.48768562519467
tp2979
a(S'3652'
p2980
S'878'
p2981
F93.48768562519467
tp2982
a(S'882'
p2983
S'3192'
p2984
F68.31208832887188
tp2985
a(S'3192'
p2986
S'882'
p2987
F68.31208832887188
tp2988
a(S'882'
p2989
S'5739'
p2990
F127.26509033071271
tp2991
a(S'5739'
p2992
S'882'
p2993
F127.26509033071271
tp2994
a(S'882'
p2995
S'948'
p2996
F85.56493565337772
tp2997
a(S'948'
p2998
S'882'
p2999
F85.56493565337772
tp3000
a(S'889'
p3001
S'5739'
p3002
F5.428075193078572
tp3003
a(S'5739'
p3004
S'889'
p3005
F5.428075193078572
tp3006
a(S'895'
p3007
S'5852'
p3008
F40.139365414849074
tp3009
a(S'5852'
p3010
S'895'
p3011
F40.139365414849074
tp3012
a(S'895'
p3013
S'5853'
p3014
F113.86703233746223
tp3015
a(S'5853'
p3016
S'895'
p3017
F113.86703233746223
tp3018
a(S'907'
p3019
S'7613'
p3020
F22.530124787102157
tp3021
a(S'7613'
p3022
S'907'
p3023
F22.530124787102157
tp3024
a(S'907'
p3025
S'5732'
p3026
F39.06316309598652
tp3027
a(S'5732'
p3028
S'907'
p3029
F39.06316309598652
tp3030
a(S'908'
p3031
S'3655'
p3032
F3.424740016124826
tp3033
a(S'3655'
p3034
S'908'
p3035
F3.424740016124826
tp3036
a(S'908'
p3037
S'7597'
p3038
F25.05392732082376
tp3039
a(S'7597'
p3040
S'908'
p3041
F25.05392732082376
tp3042
a(S'908'
p3043
S'1104'
p3044
F127.03874716942532
tp3045
a(S'1104'
p3046
S'908'
p3047
F127.03874716942532
tp3048
a(S'927'
p3049
S'1033'
p3050
F19.167253030661822
tp3051
a(S'1033'
p3052
S'927'
p3053
F19.167253030661822
tp3054
a(S'927'
p3055
S'8257'
p3056
F5.640940201566144
tp3057
a(S'8257'
p3058
S'927'
p3059
F5.640940201566144
tp3060
a(S'927'
p3061
S'5727'
p3062
F72.99593980838532
tp3063
a(S'5727'
p3064
S'927'
p3065
F72.99593980838532
tp3066
a(S'934'
p3067
S'5790'
p3068
F29.974226825999093
tp3069
a(S'5790'
p3070
S'934'
p3071
F29.974226825999093
tp3072
a(S'935'
p3073
S'973'
p3074
F6.750132545065422
tp3075
a(S'973'
p3076
S'935'
p3077
F6.750132545065422
tp3078
a(S'935'
p3079
S'5102'
p3080
F27.101945097027883
tp3081
a(S'5102'
p3082
S'935'
p3083
F27.101945097027883
tp3084
a(S'935'
p3085
S'5101'
p3086
F32.73187605405057
tp3087
a(S'5101'
p3088
S'935'
p3089
F32.73187605405057
tp3090
a(S'936'
p3091
S'5360'
p3092
F25.81749558265133
tp3093
a(S'5360'
p3094
S'936'
p3095
F25.81749558265133
tp3096
a(S'936'
p3097
S'992'
p3098
F138.04211024835487
tp3099
a(S'992'
p3100
S'936'
p3101
F138.04211024835487
tp3102
a(S'936'
p3103
S'964'
p3104
F198.65129017064862
tp3105
a(S'964'
p3106
S'936'
p3107
F198.65129017064862
tp3108
a(S'937'
p3109
S'5745'
p3110
F40.13671255878218
tp3111
a(S'5745'
p3112
S'937'
p3113
F40.13671255878218
tp3114
a(S'938'
p3115
S'3456'
p3116
F39.29272854860493
tp3117
a(S'3456'
p3118
S'938'
p3119
F39.29272854860493
tp3120
a(S'939'
p3121
S'4038'
p3122
F63.918047614147895
tp3123
a(S'4038'
p3124
S'939'
p3125
F63.918047614147895
tp3126
a(S'939'
p3127
S'988'
p3128
F90.08054413916578
tp3129
a(S'988'
p3130
S'939'
p3131
F90.08054413916578
tp3132
a(S'939'
p3133
S'4035'
p3134
F45.038161440231114
tp3135
a(S'4035'
p3136
S'939'
p3137
F45.038161440231114
tp3138
a(S'940'
p3139
S'5731'
p3140
F5.885199074858566
tp3141
a(S'5731'
p3142
S'940'
p3143
F5.885199074858566
tp3144
a(S'940'
p3145
S'5725'
p3146
F6.800169656913218
tp3147
a(S'5725'
p3148
S'940'
p3149
F6.800169656913218
tp3150
a(S'940'
p3151
S'3135'
p3152
F67.9167710841433
tp3153
a(S'3135'
p3154
S'940'
p3155
F67.9167710841433
tp3156
a(S'940'
p3157
S'3749'
p3158
F65.31710599213514
tp3159
a(S'3749'
p3160
S'940'
p3161
F65.31710599213514
tp3162
a(S'941'
p3163
S'967'
p3164
F164.83482031167617
tp3165
a(S'967'
p3166
S'941'
p3167
F164.83482031167617
tp3168
a(S'942'
p3169
S'6906'
p3170
F5.788122513880188
tp3171
a(S'6906'
p3172
S'942'
p3173
F5.788122513880188
tp3174
a(S'942'
p3175
S'6905'
p3176
F28.2745124801585
tp3177
a(S'6905'
p3178
S'942'
p3179
F28.2745124801585
tp3180
a(S'942'
p3181
S'1227'
p3182
F55.26202452883331
tp3183
a(S'1227'
p3184
S'942'
p3185
F55.26202452883331
tp3186
a(S'943'
p3187
S'955'
p3188
F78.9609918373787
tp3189
a(S'955'
p3190
S'943'
p3191
F78.9609918373787
tp3192
a(S'943'
p3193
S'5754'
p3194
F18.0459677823149
tp3195
a(S'5754'
p3196
S'943'
p3197
F18.0459677823149
tp3198
a(S'943'
p3199
S'948'
p3200
F92.99007342652133
tp3201
a(S'948'
p3202
S'943'
p3203
F92.99007342652133
tp3204
a(S'944'
p3205
S'972'
p3206
F97.72198784105085
tp3207
a(S'972'
p3208
S'944'
p3209
F97.72198784105085
tp3210
a(S'944'
p3211
S'956'
p3212
F171.56587347344322
tp3213
a(S'956'
p3214
S'944'
p3215
F171.56587347344322
tp3216
a(S'945'
p3217
S'1205'
p3218
F69.39133312378479
tp3219
a(S'1205'
p3220
S'945'
p3221
F69.39133312378479
tp3222
a(S'947'
p3223
S'974'
p3224
F83.21464112613283
tp3225
a(S'974'
p3226
S'947'
p3227
F83.21464112613283
tp3228
a(S'947'
p3229
S'5873'
p3230
F21.49322964100649
tp3231
a(S'5873'
p3232
S'947'
p3233
F21.49322964100649
tp3234
a(S'947'
p3235
S'986'
p3236
F40.79824818055315
tp3237
a(S'986'
p3238
S'947'
p3239
F40.79824818055315
tp3240
a(S'948'
p3241
S'5749'
p3242
F1.368604198524454
tp3243
a(S'5749'
p3244
S'948'
p3245
F1.368604198524454
tp3246
a(S'949'
p3247
S'4979'
p3248
F59.3825822608612
tp3249
a(S'4979'
p3250
S'949'
p3251
F59.3825822608612
tp3252
a(S'949'
p3253
S'4977'
p3254
F54.36665483270209
tp3255
a(S'4977'
p3256
S'949'
p3257
F54.36665483270209
tp3258
a(S'950'
p3259
S'3859'
p3260
F39.45733122565637
tp3261
a(S'3859'
p3262
S'950'
p3263
F39.45733122565637
tp3264
a(S'951'
p3265
S'5865'
p3266
F62.814498005592924
tp3267
a(S'5865'
p3268
S'951'
p3269
F62.814498005592924
tp3270
a(S'952'
p3271
S'5526'
p3272
F39.920984072028844
tp3273
a(S'5526'
p3274
S'952'
p3275
F39.920984072028844
tp3276
a(S'952'
p3277
S'976'
p3278
F45.94618707583453
tp3279
a(S'976'
p3280
S'952'
p3281
F45.94618707583453
tp3282
a(S'952'
p3283
S'957'
p3284
F15.564854052977093
tp3285
a(S'957'
p3286
S'952'
p3287
F15.564854052977093
tp3288
a(S'953'
p3289
S'958'
p3290
F26.174997859935658
tp3291
a(S'958'
p3292
S'953'
p3293
F26.174997859935658
tp3294
a(S'953'
p3295
S'3951'
p3296
F5.578934771933552
tp3297
a(S'3951'
p3298
S'953'
p3299
F5.578934771933552
tp3300
a(S'954'
p3301
S'6606'
p3302
F22.460005852361682
tp3303
a(S'6606'
p3304
S'954'
p3305
F22.460005852361682
tp3306
a(S'955'
p3307
S'979'
p3308
F63.18717318504026
tp3309
a(S'979'
p3310
S'955'
p3311
F63.18717318504026
tp3312
a(S'955'
p3313
S'5751'
p3314
F38.06855372417773
tp3315
a(S'5751'
p3316
S'955'
p3317
F38.06855372417773
tp3318
a(S'956'
p3319
S'970'
p3320
F49.54603698005247
tp3321
a(S'970'
p3322
S'956'
p3323
F49.54603698005247
tp3324
a(S'957'
p3325
S'995'
p3326
F41.32767949442529
tp3327
a(S'995'
p3328
S'957'
p3329
F41.32767949442529
tp3330
a(S'957'
p3331
S'982'
p3332
F5.128627689861228
tp3333
a(S'982'
p3334
S'957'
p3335
F5.128627689861228
tp3336
a(S'958'
p3337
S'988'
p3338
F92.26979408513317
tp3339
a(S'988'
p3340
S'958'
p3341
F92.26979408513317
tp3342
a(S'958'
p3343
S'3951'
p3344
F27.795493421129066
tp3345
a(S'3951'
p3346
S'958'
p3347
F27.795493421129066
tp3348
a(S'959'
p3349
S'5101'
p3350
F8.137460578277201
tp3351
a(S'5101'
p3352
S'959'
p3353
F8.137460578277201
tp3354
a(S'959'
p3355
S'5205'
p3356
F43.96812030402321
tp3357
a(S'5205'
p3358
S'959'
p3359
F43.96812030402321
tp3360
a(S'959'
p3361
S'5104'
p3362
F58.24778422131596
tp3363
a(S'5104'
p3364
S'959'
p3365
F58.24778422131596
tp3366
a(S'960'
p3367
S'5386'
p3368
F4.383205395147987
tp3369
a(S'5386'
p3370
S'960'
p3371
F4.383205395147987
tp3372
a(S'960'
p3373
S'4844'
p3374
F48.658060559729
tp3375
a(S'4844'
p3376
S'960'
p3377
F48.658060559729
tp3378
a(S'960'
p3379
S'4843'
p3380
F40.9877647590466
tp3381
a(S'4843'
p3382
S'960'
p3383
F40.9877647590466
tp3384
a(S'961'
p3385
S'985'
p3386
F23.396685432633895
tp3387
a(S'985'
p3388
S'961'
p3389
F23.396685432633895
tp3390
a(S'962'
p3391
S'4041'
p3392
F41.73621714742534
tp3393
a(S'4041'
p3394
S'962'
p3395
F41.73621714742534
tp3396
a(S'963'
p3397
S'1227'
p3398
F29.969521096770045
tp3399
a(S'1227'
p3400
S'963'
p3401
F29.969521096770045
tp3402
a(S'963'
p3403
S'989'
p3404
F20.180806021170856
tp3405
a(S'989'
p3406
S'963'
p3407
F20.180806021170856
tp3408
a(S'963'
p3409
S'5088'
p3410
F17.210479170056658
tp3411
a(S'5088'
p3412
S'963'
p3413
F17.210479170056658
tp3414
a(S'964'
p3415
S'994'
p3416
F20.96729175287012
tp3417
a(S'994'
p3418
S'964'
p3419
F20.96729175287012
tp3420
a(S'964'
p3421
S'5104'
p3422
F13.261415627771239
tp3423
a(S'5104'
p3424
S'964'
p3425
F13.261415627771239
tp3426
a(S'964'
p3427
S'5105'
p3428
F8.190359692694708
tp3429
a(S'5105'
p3430
S'964'
p3431
F8.190359692694708
tp3432
a(S'965'
p3433
S'5725'
p3434
F47.94762590595696
tp3435
a(S'5725'
p3436
S'965'
p3437
F47.94762590595696
tp3438
a(S'965'
p3439
S'5728'
p3440
F48.726407249848506
tp3441
a(S'5728'
p3442
S'965'
p3443
F48.726407249848506
tp3444
a(S'966'
p3445
S'992'
p3446
F82.98155189663557
tp3447
a(S'992'
p3448
S'966'
p3449
F82.98155189663557
tp3450
a(S'967'
p3451
S'5746'
p3452
F55.03536728735542
tp3453
a(S'5746'
p3454
S'967'
p3455
F55.03536728735542
tp3456
a(S'967'
p3457
S'979'
p3458
F77.88268356640612
tp3459
a(S'979'
p3460
S'967'
p3461
F77.88268356640612
tp3462
a(S'968'
p3463
S'5936'
p3464
F4.831389795729784
tp3465
a(S'5936'
p3466
S'968'
p3467
F4.831389795729784
tp3468
a(S'968'
p3469
S'8677'
p3470
F5.991148782973043
tp3471
a(S'8677'
p3472
S'968'
p3473
F5.991148782973043
tp3474
a(S'968'
p3475
S'971'
p3476
F121.20512399464965
tp3477
a(S'971'
p3478
S'968'
p3479
F121.20512399464965
tp3480
a(S'968'
p3481
S'8258'
p3482
F128.29199565311782
tp3483
a(S'8258'
p3484
S'968'
p3485
F128.29199565311782
tp3486
a(S'969'
p3487
S'5359'
p3488
F40.29318138354539
tp3489
a(S'5359'
p3490
S'969'
p3491
F40.29318138354539
tp3492
a(S'969'
p3493
S'5520'
p3494
F40.44341286364471
tp3495
a(S'5520'
p3496
S'969'
p3497
F40.44341286364471
tp3498
a(S'969'
p3499
S'989'
p3500
F36.97977612042223
tp3501
a(S'989'
p3502
S'969'
p3503
F36.97977612042223
tp3504
a(S'969'
p3505
S'8670'
p3506
F28.650938005881137
tp3507
a(S'8670'
p3508
S'969'
p3509
F28.650938005881137
tp3510
a(S'970'
p3511
S'983'
p3512
F32.18627582718499
tp3513
a(S'983'
p3514
S'970'
p3515
F32.18627582718499
tp3516
a(S'970'
p3517
S'5865'
p3518
F30.18068543559407
tp3519
a(S'5865'
p3520
S'970'
p3521
F30.18068543559407
tp3522
a(S'972'
p3523
S'6746'
p3524
F69.3355701541161
tp3525
a(S'6746'
p3526
S'972'
p3527
F69.3355701541161
tp3528
a(S'972'
p3529
S'996'
p3530
F68.3892434283798
tp3531
a(S'996'
p3532
S'972'
p3533
F68.3892434283798
tp3534
a(S'973'
p3535
S'5755'
p3536
F54.97368187131055
tp3537
a(S'5755'
p3538
S'973'
p3539
F54.97368187131055
tp3540
a(S'975'
p3541
S'4844'
p3542
F15.433088902189215
tp3543
a(S'4844'
p3544
S'975'
p3545
F15.433088902189215
tp3546
a(S'975'
p3547
S'984'
p3548
F59.62539568655754
tp3549
a(S'984'
p3550
S'975'
p3551
F59.62539568655754
tp3552
a(S'976'
p3553
S'995'
p3554
F41.401754763841225
tp3555
a(S'995'
p3556
S'976'
p3557
F41.401754763841225
tp3558
a(S'976'
p3559
S'3099'
p3560
F102.34446417697868
tp3561
a(S'3099'
p3562
S'976'
p3563
F102.34446417697868
tp3564
a(S'976'
p3565
S'984'
p3566
F80.86222732188149
tp3567
a(S'984'
p3568
S'976'
p3569
F80.86222732188149
tp3570
a(S'977'
p3571
S'5393'
p3572
F5.679284294896174
tp3573
a(S'5393'
p3574
S'977'
p3575
F5.679284294896174
tp3576
a(S'977'
p3577
S'978'
p3578
F5.37328699588677
tp3579
a(S'978'
p3580
S'977'
p3581
F5.37328699588677
tp3582
a(S'977'
p3583
S'2826'
p3584
F82.68310642009129
tp3585
a(S'2826'
p3586
S'977'
p3587
F82.68310642009129
tp3588
a(S'978'
p3589
S'6606'
p3590
F25.148730853763674
tp3591
a(S'6606'
p3592
S'978'
p3593
F25.148730853763674
tp3594
a(S'978'
p3595
S'990'
p3596
F150.11749369642544
tp3597
a(S'990'
p3598
S'978'
p3599
F150.11749369642544
tp3600
a(S'982'
p3601
S'6905'
p3602
F5.936004481123783
tp3603
a(S'6905'
p3604
S'982'
p3605
F5.936004481123783
tp3606
a(S'982'
p3607
S'5674'
p3608
F68.83167660901302
tp3609
a(S'5674'
p3610
S'982'
p3611
F68.83167660901302
tp3612
a(S'984'
p3613
S'4843'
p3614
F15.790995424434538
tp3615
a(S'4843'
p3616
S'984'
p3617
F15.790995424434538
tp3618
a(S'987'
p3619
S'993'
p3620
F41.38202184591745
tp3621
a(S'993'
p3622
S'987'
p3623
F41.38202184591745
tp3624
a(S'987'
p3625
S'5875'
p3626
F10.671236182422724
tp3627
a(S'5875'
p3628
S'987'
p3629
F10.671236182422724
tp3630
a(S'988'
p3631
S'4979'
p3632
F37.803272259735095
tp3633
a(S'4979'
p3634
S'988'
p3635
F37.803272259735095
tp3636
a(S'989'
p3637
S'5387'
p3638
F50.80660328237734
tp3639
a(S'5387'
p3640
S'989'
p3641
F50.80660328237734
tp3642
a(S'990'
p3643
S'5386'
p3644
F5.617711278402763
tp3645
a(S'5386'
p3646
S'990'
p3647
F5.617711278402763
tp3648
a(S'990'
p3649
S'2130'
p3650
F5.88558785154019
tp3651
a(S'2130'
p3652
S'990'
p3653
F5.88558785154019
tp3654
a(S'991'
p3655
S'3192'
p3656
F1.370269270321627
tp3657
a(S'3192'
p3658
S'991'
p3659
F1.370269270321627
tp3660
a(S'991'
p3661
S'5754'
p3662
F58.90581707923201
tp3663
a(S'5754'
p3664
S'991'
p3665
F58.90581707923201
tp3666
a(S'992'
p3667
S'5520'
p3668
F24.17091868460595
tp3669
a(S'5520'
p3670
S'992'
p3671
F24.17091868460595
tp3672
a(S'993'
p3673
S'1088'
p3674
F2.51061547367055
tp3675
a(S'1088'
p3676
S'993'
p3677
F2.51061547367055
tp3678
a(S'993'
p3679
S'5868'
p3680
F1.418232467734472
tp3681
a(S'5868'
p3682
S'993'
p3683
F1.418232467734472
tp3684
a(S'995'
p3685
S'5393'
p3686
F5.775278175677542
tp3687
a(S'5393'
p3688
S'995'
p3689
F5.775278175677542
tp3690
a(S'996'
p3691
S'997'
p3692
F7.053549907428712
tp3693
a(S'997'
p3694
S'996'
p3695
F7.053549907428712
tp3696
a(S'996'
p3697
S'1000'
p3698
F6.268271408340619
tp3699
a(S'1000'
p3700
S'996'
p3701
F6.268271408340619
tp3702
a(S'997'
p3703
S'1000'
p3704
F5.223606327074515
tp3705
a(S'1000'
p3706
S'997'
p3707
F5.223606327074515
tp3708
a(S'997'
p3709
S'4977'
p3710
F38.93091378944101
tp3711
a(S'4977'
p3712
S'997'
p3713
F38.93091378944101
tp3714
a(S'998'
p3715
S'1000'
p3716
F5.885662991814594
tp3717
a(S'1000'
p3718
S'998'
p3719
F5.885662991814594
tp3720
a(S'998'
p3721
S'999'
p3722
F6.557130414334034
tp3723
a(S'999'
p3724
S'998'
p3725
F6.557130414334034
tp3726
a(S'998'
p3727
S'4035'
p3728
F44.55820757427998
tp3729
a(S'4035'
p3730
S'998'
p3731
F44.55820757427998
tp3732
a(S'999'
p3733
S'4037'
p3734
F57.267462390067976
tp3735
a(S'4037'
p3736
S'999'
p3737
F57.267462390067976
tp3738
a(S'999'
p3739
S'1000'
p3740
F4.641935340154012
tp3741
a(S'1000'
p3742
S'999'
p3743
F4.641935340154012
tp3744
a(S'1001'
p3745
S'4705'
p3746
F7.918224164923149
tp3747
a(S'4705'
p3748
S'1001'
p3749
F7.918224164923149
tp3750
a(S'1001'
p3751
S'1058'
p3752
F30.543667073762876
tp3753
a(S'1058'
p3754
S'1001'
p3755
F30.543667073762876
tp3756
a(S'1001'
p3757
S'4703'
p3758
F117.98491616718935
tp3759
a(S'4703'
p3760
S'1001'
p3761
F117.98491616718935
tp3762
a(S'1012'
p3763
S'5388'
p3764
F44.220744506101646
tp3765
a(S'5388'
p3766
S'1012'
p3767
F44.220744506101646
tp3768
a(S'1028'
p3769
S'7031'
p3770
F10.518145675862293
tp3771
a(S'7031'
p3772
S'1028'
p3773
F10.518145675862293
tp3774
a(S'1028'
p3775
S'8256'
p3776
F66.18871213267771
tp3777
a(S'8256'
p3778
S'1028'
p3779
F66.18871213267771
tp3780
a(S'1028'
p3781
S'8130'
p3782
F5.19753908267521
tp3783
a(S'8130'
p3784
S'1028'
p3785
F5.19753908267521
tp3786
a(S'1029'
p3787
S'8259'
p3788
F26.283946068486628
tp3789
a(S'8259'
p3790
S'1029'
p3791
F26.283946068486628
tp3792
a(S'1029'
p3793
S'7982'
p3794
F14.983404964981709
tp3795
a(S'7982'
p3796
S'1029'
p3797
F14.983404964981709
tp3798
a(S'1030'
p3799
S'7316'
p3800
F15.75775879328501
tp3801
a(S'7316'
p3802
S'1030'
p3803
F15.75775879328501
tp3804
a(S'1030'
p3805
S'8129'
p3806
F102.21782012197257
tp3807
a(S'8129'
p3808
S'1030'
p3809
F102.21782012197257
tp3810
a(S'1031'
p3811
S'4690'
p3812
F11.051401924332986
tp3813
a(S'4690'
p3814
S'1031'
p3815
F11.051401924332986
tp3816
a(S'1031'
p3817
S'1032'
p3818
F28.65232033950573
tp3819
a(S'1032'
p3820
S'1031'
p3821
F28.65232033950573
tp3822
a(S'1032'
p3823
S'1033'
p3824
F7.98575102416144
tp3825
a(S'1033'
p3826
S'1032'
p3827
F7.98575102416144
tp3828
a(S'1032'
p3829
S'7310'
p3830
F295.4664077399505
tp3831
a(S'7310'
p3832
S'1032'
p3833
F295.4664077399505
tp3834
a(S'1034'
p3835
S'1035'
p3836
F91.03403144988658
tp3837
a(S'1035'
p3838
S'1034'
p3839
F91.03403144988658
tp3840
a(S'1034'
p3841
S'7308'
p3842
F17.207472403117762
tp3843
a(S'7308'
p3844
S'1034'
p3845
F17.207472403117762
tp3846
a(S'1034'
p3847
S'1037'
p3848
F84.18347535113907
tp3849
a(S'1037'
p3850
S'1034'
p3851
F84.18347535113907
tp3852
a(S'1035'
p3853
S'4693'
p3854
F18.25028770836287
tp3855
a(S'4693'
p3856
S'1035'
p3857
F18.25028770836287
tp3858
a(S'1035'
p3859
S'7310'
p3860
F20.729471457232425
tp3861
a(S'7310'
p3862
S'1035'
p3863
F20.729471457232425
tp3864
a(S'1036'
p3865
S'4970'
p3866
F22.647997629859727
tp3867
a(S'4970'
p3868
S'1036'
p3869
F22.647997629859727
tp3870
a(S'1036'
p3871
S'7308'
p3872
F30.417047100131974
tp3873
a(S'7308'
p3874
S'1036'
p3875
F30.417047100131974
tp3876
a(S'1038'
p3877
S'7320'
p3878
F53.98484533342594
tp3879
a(S'7320'
p3880
S'1038'
p3881
F53.98484533342594
tp3882
a(S'1038'
p3883
S'7268'
p3884
F189.6741871856454
tp3885
a(S'7268'
p3886
S'1038'
p3887
F189.6741871856454
tp3888
a(S'1039'
p3889
S'1040'
p3890
F68.62071005450564
tp3891
a(S'1040'
p3892
S'1039'
p3893
F68.62071005450564
tp3894
a(S'1040'
p3895
S'1041'
p3896
F56.39423725706678
tp3897
a(S'1041'
p3898
S'1040'
p3899
F56.39423725706678
tp3900
a(S'1040'
p3901
S'5781'
p3902
F32.98303747564452
tp3903
a(S'5781'
p3904
S'1040'
p3905
F32.98303747564452
tp3906
a(S'1041'
p3907
S'1042'
p3908
F81.12255713973418
tp3909
a(S'1042'
p3910
S'1041'
p3911
F81.12255713973418
tp3912
a(S'1041'
p3913
S'5781'
p3914
F24.028669687478146
tp3915
a(S'5781'
p3916
S'1041'
p3917
F24.028669687478146
tp3918
a(S'1042'
p3919
S'5782'
p3920
F3.096262158629363
tp3921
a(S'5782'
p3922
S'1042'
p3923
F3.096262158629363
tp3924
a(S'1058'
p3925
S'3921'
p3926
F34.45044560769078
tp3927
a(S'3921'
p3928
S'1058'
p3929
F34.45044560769078
tp3930
a(S'1058'
p3931
S'1066'
p3932
F117.16872095078128
tp3933
a(S'1066'
p3934
S'1058'
p3935
F117.16872095078128
tp3936
a(S'1059'
p3937
S'1060'
p3938
F15.661110385934073
tp3939
a(S'1060'
p3940
S'1059'
p3941
F15.661110385934073
tp3942
a(S'1060'
p3943
S'1065'
p3944
F10.871335366161624
tp3945
a(S'1065'
p3946
S'1060'
p3947
F10.871335366161624
tp3948
a(S'1060'
p3949
S'5517'
p3950
F14.040911972247267
tp3951
a(S'5517'
p3952
S'1060'
p3953
F14.040911972247267
tp3954
a(S'1064'
p3955
S'5864'
p3956
F34.54749870061738
tp3957
a(S'5864'
p3958
S'1064'
p3959
F34.54749870061738
tp3960
a(S'1066'
p3961
S'7498'
p3962
F35.60141245191702
tp3963
a(S'7498'
p3964
S'1066'
p3965
F35.60141245191702
tp3966
a(S'1072'
p3967
S'1096'
p3968
F22.83238464401776
tp3969
a(S'1096'
p3970
S'1072'
p3971
F22.83238464401776
tp3972
a(S'1073'
p3973
S'1090'
p3974
F30.968411368830864
tp3975
a(S'1090'
p3976
S'1073'
p3977
F30.968411368830864
tp3978
a(S'1073'
p3979
S'1099'
p3980
F103.51432995225014
tp3981
a(S'1099'
p3982
S'1073'
p3983
F103.51432995225014
tp3984
a(S'1073'
p3985
S'1105'
p3986
F77.97046514176103
tp3987
a(S'1105'
p3988
S'1073'
p3989
F77.97046514176103
tp3990
a(S'1075'
p3991
S'1080'
p3992
F57.77191664091671
tp3993
a(S'1080'
p3994
S'1075'
p3995
F57.77191664091671
tp3996
a(S'1075'
p3997
S'1078'
p3998
F128.64291274247813
tp3999
a(S'1078'
p4000
S'1075'
p4001
F128.64291274247813
tp4002
a(S'1075'
p4003
S'1090'
p4004
F23.908498152369607
tp4005
a(S'1090'
p4006
S'1075'
p4007
F23.908498152369607
tp4008
a(S'1077'
p4009
S'1096'
p4010
F29.766593576647974
tp4011
a(S'1096'
p4012
S'1077'
p4013
F29.766593576647974
tp4014
a(S'1077'
p4015
S'1103'
p4016
F97.49422550564228
tp4017
a(S'1103'
p4018
S'1077'
p4019
F97.49422550564228
tp4020
a(S'1077'
p4021
S'1094'
p4022
F17.827016803302143
tp4023
a(S'1094'
p4024
S'1077'
p4025
F17.827016803302143
tp4026
a(S'1078'
p4027
S'5361'
p4028
F2.508633212640985
tp4029
a(S'5361'
p4030
S'1078'
p4031
F2.508633212640985
tp4032
a(S'1078'
p4033
S'3807'
p4034
F31.26457506395654
tp4035
a(S'3807'
p4036
S'1078'
p4037
F31.26457506395654
tp4038
a(S'1079'
p4039
S'8677'
p4040
F42.62544740218166
tp4041
a(S'8677'
p4042
S'1079'
p4043
F42.62544740218166
tp4044
a(S'1080'
p4045
S'3091'
p4046
F18.6486356350336
tp4047
a(S'3091'
p4048
S'1080'
p4049
F18.6486356350336
tp4050
a(S'1080'
p4051
S'8456'
p4052
F70.98007134122703
tp4053
a(S'8456'
p4054
S'1080'
p4055
F70.98007134122703
tp4056
a(S'1081'
p4057
S'1099'
p4058
F19.26889692175502
tp4059
a(S'1099'
p4060
S'1081'
p4061
F19.26889692175502
tp4062
a(S'1081'
p4063
S'8456'
p4064
F35.62307609031159
tp4065
a(S'8456'
p4066
S'1081'
p4067
F35.62307609031159
tp4068
a(S'1081'
p4069
S'1090'
p4070
F73.12526837423017
tp4071
a(S'1090'
p4072
S'1081'
p4073
F73.12526837423017
tp4074
a(S'1083'
p4075
S'5730'
p4076
F5.61987246642286
tp4077
a(S'5730'
p4078
S'1083'
p4079
F5.61987246642286
tp4080
a(S'1083'
p4081
S'8831'
p4082
F23.2625304919756
tp4083
a(S'8831'
p4084
S'1083'
p4085
F23.2625304919756
tp4086
a(S'1088'
p4087
S'5907'
p4088
F2.491941885115186
tp4089
a(S'5907'
p4090
S'1088'
p4091
F2.491941885115186
tp4092
a(S'1088'
p4093
S'1098'
p4094
F121.91684667577778
tp4095
a(S'1098'
p4096
S'1088'
p4097
F121.91684667577778
tp4098
a(S'1089'
p4099
S'1096'
p4100
F69.79566081663818
tp4101
a(S'1096'
p4102
S'1089'
p4103
F69.79566081663818
tp4104
a(S'1090'
p4105
S'1105'
p4106
F73.90285766594904
tp4107
a(S'1105'
p4108
S'1090'
p4109
F73.90285766594904
tp4110
a(S'1098'
p4111
S'1102'
p4112
F12.928868732272143
tp4113
a(S'1102'
p4114
S'1098'
p4115
F12.928868732272143
tp4116
a(S'1098'
p4117
S'1469'
p4118
F55.283600592315274
tp4119
a(S'1469'
p4120
S'1098'
p4121
F55.283600592315274
tp4122
a(S'1099'
p4123
S'8457'
p4124
F26.800667762151143
tp4125
a(S'8457'
p4126
S'1099'
p4127
F26.800667762151143
tp4128
a(S'1100'
p4129
S'5132'
p4130
F73.87251381694614
tp4131
a(S'5132'
p4132
S'1100'
p4133
F73.87251381694614
tp4134
a(S'1100'
p4135
S'1104'
p4136
F60.709468126092275
tp4137
a(S'1104'
p4138
S'1100'
p4139
F60.709468126092275
tp4140
a(S'1103'
p4141
S'1107'
p4142
F50.33090501856466
tp4143
a(S'1107'
p4144
S'1103'
p4145
F50.33090501856466
tp4146
a(S'1104'
p4147
S'5852'
p4148
F10.219260166037241
tp4149
a(S'5852'
p4150
S'1104'
p4151
F10.219260166037241
tp4152
a(S'1105'
p4153
S'3807'
p4154
F56.913816884715686
tp4155
a(S'3807'
p4156
S'1105'
p4157
F56.913816884715686
tp4158
a(S'1107'
p4159
S'5730'
p4160
F52.63568187427425
tp4161
a(S'5730'
p4162
S'1107'
p4163
F52.63568187427425
tp4164
a(S'1121'
p4165
S'6589'
p4166
F4.20256774741888
tp4167
a(S'6589'
p4168
S'1121'
p4169
F4.20256774741888
tp4170
a(S'1121'
p4171
S'7008'
p4172
F57.071291967009884
tp4173
a(S'7008'
p4174
S'1121'
p4175
F57.071291967009884
tp4176
a(S'1121'
p4177
S'1127'
p4178
F67.8720158816489
tp4179
a(S'1127'
p4180
S'1121'
p4181
F67.8720158816489
tp4182
a(S'1124'
p4183
S'5879'
p4184
F59.74459239081072
tp4185
a(S'5879'
p4186
S'1124'
p4187
F59.74459239081072
tp4188
a(S'1144'
p4189
S'7008'
p4190
F55.69878898867813
tp4191
a(S'7008'
p4192
S'1144'
p4193
F55.69878898867813
tp4194
a(S'1144'
p4195
S'4820'
p4196
F48.31605445131618
tp4197
a(S'4820'
p4198
S'1144'
p4199
F48.31605445131618
tp4200
a(S'1144'
p4201
S'6615'
p4202
F35.24301925482503
tp4203
a(S'6615'
p4204
S'1144'
p4205
F35.24301925482503
tp4206
a(S'1145'
p4207
S'3932'
p4208
F59.37516030917505
tp4209
a(S'3932'
p4210
S'1145'
p4211
F59.37516030917505
tp4212
a(S'1199'
p4213
S'1230'
p4214
F12.26654190836566
tp4215
a(S'1230'
p4216
S'1199'
p4217
F12.26654190836566
tp4218
a(S'1201'
p4219
S'1233'
p4220
F24.180649915467285
tp4221
a(S'1233'
p4222
S'1201'
p4223
F24.180649915467285
tp4224
a(S'1201'
p4225
S'1221'
p4226
F22.36641817741629
tp4227
a(S'1221'
p4228
S'1201'
p4229
F22.36641817741629
tp4230
a(S'1201'
p4231
S'1238'
p4232
F42.01996289183703
tp4233
a(S'1238'
p4234
S'1201'
p4235
F42.01996289183703
tp4236
a(S'1205'
p4237
S'1237'
p4238
F42.31854860136736
tp4239
a(S'1237'
p4240
S'1205'
p4241
F42.31854860136736
tp4242
a(S'1205'
p4243
S'5391'
p4244
F6.060386174289217
tp4245
a(S'5391'
p4246
S'1205'
p4247
F6.060386174289217
tp4248
a(S'1206'
p4249
S'1233'
p4250
F9.62786064236518
tp4251
a(S'1233'
p4252
S'1206'
p4253
F9.62786064236518
tp4254
a(S'1206'
p4255
S'4984'
p4256
F5.237528968954022
tp4257
a(S'4984'
p4258
S'1206'
p4259
F5.237528968954022
tp4260
a(S'1206'
p4261
S'5673'
p4262
F15.53306847791792
tp4263
a(S'5673'
p4264
S'1206'
p4265
F15.53306847791792
tp4266
a(S'1207'
p4267
S'1211'
p4268
F12.859480390902405
tp4269
a(S'1211'
p4270
S'1207'
p4271
F12.859480390902405
tp4272
a(S'1207'
p4273
S'5088'
p4274
F11.473436873551194
tp4275
a(S'5088'
p4276
S'1207'
p4277
F11.473436873551194
tp4278
a(S'1207'
p4279
S'1230'
p4280
F10.512002290414765
tp4281
a(S'1230'
p4282
S'1207'
p4283
F10.512002290414765
tp4284
a(S'1215'
p4285
S'1242'
p4286
F6.013851482622902
tp4287
a(S'1242'
p4288
S'1215'
p4289
F6.013851482622902
tp4290
a(S'1215'
p4291
S'1234'
p4292
F33.73524488828259
tp4293
a(S'1234'
p4294
S'1215'
p4295
F33.73524488828259
tp4296
a(S'1215'
p4297
S'6906'
p4298
F18.925959952735433
tp4299
a(S'6906'
p4300
S'1215'
p4301
F18.925959952735433
tp4302
a(S'1218'
p4303
S'6908'
p4304
F4.269595758300856
tp4305
a(S'6908'
p4306
S'1218'
p4307
F4.269595758300856
tp4308
a(S'1218'
p4309
S'1242'
p4310
F14.632097377965653
tp4311
a(S'1242'
p4312
S'1218'
p4313
F14.632097377965653
tp4314
a(S'1218'
p4315
S'6909'
p4316
F18.488575650355372
tp4317
a(S'6909'
p4318
S'1218'
p4319
F18.488575650355372
tp4320
a(S'1221'
p4321
S'6909'
p4322
F4.464845802445753
tp4323
a(S'6909'
p4324
S'1221'
p4325
F4.464845802445753
tp4326
a(S'1221'
p4327
S'1224'
p4328
F23.694313354729218
tp4329
a(S'1224'
p4330
S'1221'
p4331
F23.694313354729218
tp4332
a(S'1224'
p4333
S'1242'
p4334
F9.199432973538014
tp4335
a(S'1242'
p4336
S'1224'
p4337
F9.199432973538014
tp4338
a(S'1224'
p4339
S'6910'
p4340
F13.176487384899994
tp4341
a(S'6910'
p4342
S'1224'
p4343
F13.176487384899994
tp4344
a(S'1227'
p4345
S'1234'
p4346
F14.45146233143635
tp4347
a(S'1234'
p4348
S'1227'
p4349
F14.45146233143635
tp4350
a(S'1227'
p4351
S'5389'
p4352
F47.14511881256635
tp4353
a(S'5389'
p4354
S'1227'
p4355
F47.14511881256635
tp4356
a(S'1230'
p4357
S'8670'
p4358
F34.62449082264827
tp4359
a(S'8670'
p4360
S'1230'
p4361
F34.62449082264827
tp4362
a(S'1230'
p4363
S'1238'
p4364
F14.19741181239646
tp4365
a(S'1238'
p4366
S'1230'
p4367
F14.19741181239646
tp4368
a(S'1233'
p4369
S'4845'
p4370
F36.105157532098616
tp4371
a(S'4845'
p4372
S'1233'
p4373
F36.105157532098616
tp4374
a(S'1234'
p4375
S'6909'
p4376
F18.7573178370969
tp4377
a(S'6909'
p4378
S'1234'
p4379
F18.7573178370969
tp4380
a(S'1237'
p4381
S'5389'
p4382
F6.06991350751654
tp4383
a(S'5389'
p4384
S'1237'
p4385
F6.06991350751654
tp4386
a(S'1237'
p4387
S'2826'
p4388
F12.00544679869735
tp4389
a(S'2826'
p4390
S'1237'
p4391
F12.00544679869735
tp4392
a(S'1238'
p4393
S'5088'
p4394
F45.013840176160755
tp4395
a(S'5088'
p4396
S'1238'
p4397
F45.013840176160755
tp4398
a(S'1301'
p4399
S'1577'
p4400
F62.95239756903575
tp4401
a(S'1577'
p4402
S'1301'
p4403
F62.95239756903575
tp4404
a(S'1301'
p4405
S'2038'
p4406
F30.621590527586676
tp4407
a(S'2038'
p4408
S'1301'
p4409
F30.621590527586676
tp4410
a(S'1426'
p4411
S'8457'
p4412
F86.7540197898375
tp4413
a(S'8457'
p4414
S'1426'
p4415
F86.7540197898375
tp4416
a(S'1432'
p4417
S'5433'
p4418
F58.801877569354005
tp4419
a(S'5433'
p4420
S'1432'
p4421
F58.801877569354005
tp4422
a(S'1432'
p4423
S'5782'
p4424
F66.0409618497767
tp4425
a(S'5782'
p4426
S'1432'
p4427
F66.0409618497767
tp4428
a(S'1577'
p4429
S'3048'
p4430
F42.6796021949794
tp4431
a(S'3048'
p4432
S'1577'
p4433
F42.6796021949794
tp4434
a(S'1577'
p4435
S'1624'
p4436
F19.70387147341043
tp4437
a(S'1624'
p4438
S'1577'
p4439
F19.70387147341043
tp4440
a(S'1584'
p4441
S'1624'
p4442
F23.77401412062036
tp4443
a(S'1624'
p4444
S'1584'
p4445
F23.77401412062036
tp4446
a(S'1624'
p4447
S'1637'
p4448
F34.13481877367251
tp4449
a(S'1637'
p4450
S'1624'
p4451
F34.13481877367251
tp4452
a(S'1974'
p4453
S'5168'
p4454
F18.466163345865418
tp4455
a(S'5168'
p4456
S'1974'
p4457
F18.466163345865418
tp4458
a(S'1974'
p4459
S'1976'
p4460
F24.81315919664547
tp4461
a(S'1976'
p4462
S'1974'
p4463
F24.81315919664547
tp4464
a(S'1975'
p4465
S'1976'
p4466
F17.335167713525912
tp4467
a(S'1976'
p4468
S'1975'
p4469
F17.335167713525912
tp4470
a(S'1976'
p4471
S'1977'
p4472
F55.43717767424748
tp4473
a(S'1977'
p4474
S'1976'
p4475
F55.43717767424748
tp4476
a(S'5133'
p4477
S'2017'
p4478
F35.55741846207104
tp4479
a(S'2017'
p4480
S'5133'
p4481
F35.55741846207104
tp4482
a(S'2038'
p4483
S'2039'
p4484
F129.15510413414748
tp4485
a(S'2039'
p4486
S'2038'
p4487
F129.15510413414748
tp4488
a(S'2042'
p4489
S'3385'
p4490
F53.74051870598246
tp4491
a(S'3385'
p4492
S'2042'
p4493
F53.74051870598246
tp4494
a(S'2042'
p4495
S'6747'
p4496
F14.556993379180744
tp4497
a(S'6747'
p4498
S'2042'
p4499
F14.556993379180744
tp4500
a(S'2076'
p4501
S'7285'
p4502
F10.198886869818084
tp4503
a(S'7285'
p4504
S'2076'
p4505
F10.198886869818084
tp4506
a(S'2076'
p4507
S'8146'
p4508
F6.659672892490851
tp4509
a(S'8146'
p4510
S'2076'
p4511
F6.659672892490851
tp4512
a(S'2076'
p4513
S'8150'
p4514
F60.40750525532716
tp4515
a(S'8150'
p4516
S'2076'
p4517
F60.40750525532716
tp4518
a(S'2076'
p4519
S'8164'
p4520
F76.5733696105575
tp4521
a(S'8164'
p4522
S'2076'
p4523
F76.5733696105575
tp4524
a(S'2130'
p4525
S'3203'
p4526
F46.991044592525675
tp4527
a(S'3203'
p4528
S'2130'
p4529
F46.991044592525675
tp4530
a(S'2130'
p4531
S'4350'
p4532
F73.73122775428207
tp4533
a(S'4350'
p4534
S'2130'
p4535
F73.73122775428207
tp4536
a(S'2527'
p4537
S'5208'
p4538
F101.90027301072955
tp4539
a(S'5208'
p4540
S'2527'
p4541
F101.90027301072955
tp4542
a(S'2533'
p4543
S'7254'
p4544
F23.19056879620386
tp4545
a(S'7254'
p4546
S'2533'
p4547
F23.19056879620386
tp4548
a(S'2533'
p4549
S'4803'
p4550
F71.74071979911795
tp4551
a(S'4803'
p4552
S'2533'
p4553
F71.74071979911795
tp4554
a(S'2803'
p4555
S'8361'
p4556
F35.00884760736019
tp4557
a(S'8361'
p4558
S'2803'
p4559
F35.00884760736019
tp4560
a(S'2803'
p4561
S'7906'
p4562
F10.265790749823267
tp4563
a(S'7906'
p4564
S'2803'
p4565
F10.265790749823267
tp4566
a(S'2804'
p4567
S'7819'
p4568
F8.807864640431545
tp4569
a(S'7819'
p4570
S'2804'
p4571
F8.807864640431545
tp4572
a(S'2804'
p4573
S'8185'
p4574
F5.948099291215973
tp4575
a(S'8185'
p4576
S'2804'
p4577
F5.948099291215973
tp4578
a(S'2804'
p4579
S'5097'
p4580
F8.235245098052374
tp4581
a(S'5097'
p4582
S'2804'
p4583
F8.235245098052374
tp4584
a(S'2826'
p4585
S'5388'
p4586
F4.823775580874275
tp4587
a(S'5388'
p4588
S'2826'
p4589
F4.823775580874275
tp4590
a(S'2890'
p4591
S'7595'
p4592
F67.43159162077083
tp4593
a(S'7595'
p4594
S'2890'
p4595
F67.43159162077083
tp4596
a(S'3047'
p4597
S'7557'
p4598
F2.971121702131624
tp4599
a(S'7557'
p4600
S'3047'
p4601
F2.971121702131624
tp4602
a(S'3048'
p4603
S'8674'
p4604
F50.16053573938734
tp4605
a(S'8674'
p4606
S'3048'
p4607
F50.16053573938734
tp4608
a(S'3048'
p4609
S'3049'
p4610
F62.46560282524741
tp4611
a(S'3049'
p4612
S'3048'
p4613
F62.46560282524741
tp4614
a(S'3083'
p4615
S'3809'
p4616
F35.31975297837307
tp4617
a(S'3809'
p4618
S'3083'
p4619
F35.31975297837307
tp4620
a(S'3083'
p4621
S'3094'
p4622
F20.762632361607963
tp4623
a(S'3094'
p4624
S'3083'
p4625
F20.762632361607963
tp4626
a(S'3083'
p4627
S'3090'
p4628
F39.8138935086899
tp4629
a(S'3090'
p4630
S'3083'
p4631
F39.8138935086899
tp4632
a(S'3084'
p4633
S'5361'
p4634
F34.09392277671336
tp4635
a(S'5361'
p4636
S'3084'
p4637
F34.09392277671336
tp4638
a(S'3084'
p4639
S'3086'
p4640
F47.06526573583844
tp4641
a(S'3086'
p4642
S'3084'
p4643
F47.06526573583844
tp4644
a(S'3086'
p4645
S'3090'
p4646
F28.504349463287223
tp4647
a(S'3090'
p4648
S'3086'
p4649
F28.504349463287223
tp4650
a(S'3086'
p4651
S'7557'
p4652
F105.37038670928624
tp4653
a(S'7557'
p4654
S'3086'
p4655
F105.37038670928624
tp4656
a(S'3087'
p4657
S'7557'
p4658
F160.82489197550177
tp4659
a(S'7557'
p4660
S'3087'
p4661
F160.82489197550177
tp4662
a(S'3088'
p4663
S'3094'
p4664
F7.779762604287187
tp4665
a(S'3094'
p4666
S'3088'
p4667
F7.779762604287187
tp4668
a(S'3089'
p4669
S'3808'
p4670
F51.042521759673775
tp4671
a(S'3808'
p4672
S'3089'
p4673
F51.042521759673775
tp4674
a(S'3090'
p4675
S'3094'
p4676
F14.22657318221652
tp4677
a(S'3094'
p4678
S'3090'
p4679
F14.22657318221652
tp4680
a(S'3091'
p4681
S'5853'
p4682
F5.10019743209102
tp4683
a(S'5853'
p4684
S'3091'
p4685
F5.10019743209102
tp4686
a(S'3092'
p4687
S'3656'
p4688
F26.365146677716925
tp4689
a(S'3656'
p4690
S'3092'
p4691
F26.365146677716925
tp4692
a(S'3125'
p4693
S'3128'
p4694
F158.56876389522694
tp4695
a(S'3128'
p4696
S'3125'
p4697
F158.56876389522694
tp4698
a(S'3126'
p4699
S'3129'
p4700
F161.46117591100523
tp4701
a(S'3129'
p4702
S'3126'
p4703
F161.46117591100523
tp4704
a(S'3128'
p4705
S'3129'
p4706
F11.988246490353934
tp4707
a(S'3129'
p4708
S'3128'
p4709
F11.988246490353934
tp4710
a(S'3128'
p4711
S'7596'
p4712
F5.236516381006511
tp4713
a(S'7596'
p4714
S'3128'
p4715
F5.236516381006511
tp4716
a(S'3128'
p4717
S'8690'
p4718
F28.14245244244652
tp4719
a(S'8690'
p4720
S'3128'
p4721
F28.14245244244652
tp4722
a(S'3129'
p4723
S'8736'
p4724
F6.568869475684508
tp4725
a(S'8736'
p4726
S'3129'
p4727
F6.568869475684508
tp4728
a(S'3134'
p4729
S'8264'
p4730
F11.626543239404013
tp4731
a(S'8264'
p4732
S'3134'
p4733
F11.626543239404013
tp4734
a(S'3134'
p4735
S'3135'
p4736
F5.800805311531806
tp4737
a(S'3135'
p4738
S'3134'
p4739
F5.800805311531806
tp4740
a(S'3134'
p4741
S'5732'
p4742
F90.90421733374785
tp4743
a(S'5732'
p4744
S'3134'
p4745
F90.90421733374785
tp4746
a(S'3134'
p4747
S'5731'
p4748
F65.96965187976659
tp4749
a(S'5731'
p4750
S'3134'
p4751
F65.96965187976659
tp4752
a(S'3135'
p4753
S'8678'
p4754
F4.935362396038688
tp4755
a(S'8678'
p4756
S'3135'
p4757
F4.935362396038688
tp4758
a(S'3176'
p4759
S'3177'
p4760
F20.251495412671847
tp4761
a(S'3177'
p4762
S'3176'
p4763
F20.251495412671847
tp4764
a(S'3192'
p4765
S'3193'
p4766
F46.59964113078452
tp4767
a(S'3193'
p4768
S'3192'
p4769
F46.59964113078452
tp4770
a(S'3194'
p4771
S'3195'
p4772
F24.98593442770455
tp4773
a(S'3195'
p4774
S'3194'
p4775
F24.98593442770455
tp4776
a(S'3194'
p4777
S'5209'
p4778
F28.121265327670965
tp4779
a(S'5209'
p4780
S'3194'
p4781
F28.121265327670965
tp4782
a(S'3194'
p4783
S'7024'
p4784
F41.58417481090431
tp4785
a(S'7024'
p4786
S'3194'
p4787
F41.58417481090431
tp4788
a(S'3195'
p4789
S'5898'
p4790
F49.859781180557015
tp4791
a(S'5898'
p4792
S'3195'
p4793
F49.859781180557015
tp4794
a(S'3198'
p4795
S'3199'
p4796
F122.93628104301555
tp4797
a(S'3199'
p4798
S'3198'
p4799
F122.93628104301555
tp4800
a(S'3219'
p4801
S'3220'
p4802
F65.64344414166142
tp4803
a(S'3220'
p4804
S'3219'
p4805
F65.64344414166142
tp4806
a(S'3220'
p4807
S'5732'
p4808
F46.00495726165697
tp4809
a(S'5732'
p4810
S'3220'
p4811
F46.00495726165697
tp4812
a(S'3361'
p4813
S'5792'
p4814
F52.786322524460196
tp4815
a(S'5792'
p4816
S'3361'
p4817
F52.786322524460196
tp4818
a(S'3361'
p4819
S'3362'
p4820
F54.811211375512634
tp4821
a(S'3362'
p4822
S'3361'
p4823
F54.811211375512634
tp4824
a(S'3362'
p4825
S'7319'
p4826
F20.710042836114233
tp4827
a(S'7319'
p4828
S'3362'
p4829
F20.710042836114233
tp4830
a(S'3362'
p4831
S'5930'
p4832
F16.419696041202165
tp4833
a(S'5930'
p4834
S'3362'
p4835
F16.419696041202165
tp4836
a(S'3385'
p4837
S'4802'
p4838
F97.0635253811136
tp4839
a(S'4802'
p4840
S'3385'
p4841
F97.0635253811136
tp4842
a(S'3454'
p4843
S'7584'
p4844
F35.257289098671166
tp4845
a(S'7584'
p4846
S'3454'
p4847
F35.257289098671166
tp4848
a(S'3455'
p4849
S'3456'
p4850
F33.50106176918752
tp4851
a(S'3456'
p4852
S'3455'
p4853
F33.50106176918752
tp4854
a(S'3456'
p4855
S'7584'
p4856
F39.7443770068654
tp4857
a(S'7584'
p4858
S'3456'
p4859
F39.7443770068654
tp4860
a(S'3462'
p4861
S'5210'
p4862
F17.097100556785477
tp4863
a(S'5210'
p4864
S'3462'
p4865
F17.097100556785477
tp4866
a(S'3462'
p4867
S'4822'
p4868
F24.85301258617713
tp4869
a(S'4822'
p4870
S'3462'
p4871
F24.85301258617713
tp4872
a(S'3553'
p4873
S'3554'
p4874
F113.11988992251949
tp4875
a(S'3554'
p4876
S'3553'
p4877
F113.11988992251949
tp4878
a(S'3554'
p4879
S'4998'
p4880
F99.05895735178916
tp4881
a(S'4998'
p4882
S'3554'
p4883
F99.05895735178916
tp4884
a(S'3564'
p4885
S'5792'
p4886
F39.07559420166211
tp4887
a(S'5792'
p4888
S'3564'
p4889
F39.07559420166211
tp4890
a(S'3564'
p4891
S'3565'
p4892
F46.76165709647005
tp4893
a(S'3565'
p4894
S'3564'
p4895
F46.76165709647005
tp4896
a(S'3566'
p4897
S'8409'
p4898
F8.266404664560786
tp4899
a(S'8409'
p4900
S'3566'
p4901
F8.266404664560786
tp4902
a(S'3567'
p4903
S'3568'
p4904
F8.992809749281475
tp4905
a(S'3568'
p4906
S'3567'
p4907
F8.992809749281475
tp4908
a(S'3567'
p4909
S'8409'
p4910
F8.336614819106012
tp4911
a(S'8409'
p4912
S'3567'
p4913
F8.336614819106012
tp4914
a(S'3567'
p4915
S'8415'
p4916
F23.01458291664906
tp4917
a(S'8415'
p4918
S'3567'
p4919
F23.01458291664906
tp4920
a(S'3652'
p4921
S'3653'
p4922
F11.52897522794912
tp4923
a(S'3653'
p4924
S'3652'
p4925
F11.52897522794912
tp4926
a(S'3652'
p4927
S'3654'
p4928
F3.722567918752939
tp4929
a(S'3654'
p4930
S'3652'
p4931
F3.722567918752939
tp4932
a(S'3655'
p4933
S'3657'
p4934
F29.572696648395073
tp4935
a(S'3657'
p4936
S'3655'
p4937
F29.572696648395073
tp4938
a(S'3655'
p4939
S'3656'
p4940
F214.78409158447423
tp4941
a(S'3656'
p4942
S'3655'
p4943
F214.78409158447423
tp4944
a(S'3657'
p4945
S'4770'
p4946
F26.944388834285743
tp4947
a(S'4770'
p4948
S'3657'
p4949
F26.944388834285743
tp4950
a(S'3704'
p4951
S'3705'
p4952
F56.97607771944233
tp4953
a(S'3705'
p4954
S'3704'
p4955
F56.97607771944233
tp4956
a(S'3708'
p4957
S'8534'
p4958
F30.04226188291256
tp4959
a(S'8534'
p4960
S'3708'
p4961
F30.04226188291256
tp4962
a(S'3709'
p4963
S'8535'
p4964
F23.56323317425143
tp4965
a(S'8535'
p4966
S'3709'
p4967
F23.56323317425143
tp4968
a(S'3709'
p4969
S'8534'
p4970
F23.51888878921079
tp4971
a(S'8534'
p4972
S'3709'
p4973
F23.51888878921079
tp4974
a(S'3709'
p4975
S'7892'
p4976
F80.34125195046124
tp4977
a(S'7892'
p4978
S'3709'
p4979
F80.34125195046124
tp4980
a(S'3749'
p4981
S'8258'
p4982
F7.42696704432501
tp4983
a(S'8258'
p4984
S'3749'
p4985
F7.42696704432501
tp4986
a(S'3749'
p4987
S'5728'
p4988
F6.438152194415682
tp4989
a(S'5728'
p4990
S'3749'
p4991
F6.438152194415682
tp4992
a(S'3750'
p4993
S'5735'
p4994
F51.8435128641586
tp4995
a(S'5735'
p4996
S'3750'
p4997
F51.8435128641586
tp4998
a(S'3784'
p4999
S'3787'
p5000
F16.040493659685392
tp5001
a(S'3787'
p5002
S'3784'
p5003
F16.040493659685392
tp5004
a(S'3784'
p5005
S'3786'
p5006
F28.645972619753856
tp5007
a(S'3786'
p5008
S'3784'
p5009
F28.645972619753856
tp5010
a(S'3785'
p5011
S'7862'
p5012
F5.622014734428571
tp5013
a(S'7862'
p5014
S'3785'
p5015
F5.622014734428571
tp5016
a(S'3785'
p5017
S'7857'
p5018
F28.63297928666697
tp5019
a(S'7857'
p5020
S'3785'
p5021
F28.63297928666697
tp5022
a(S'3785'
p5023
S'7652'
p5024
F16.617101778320276
tp5025
a(S'7652'
p5026
S'3785'
p5027
F16.617101778320276
tp5028
a(S'3786'
p5029
S'8463'
p5030
F5.057971363547369
tp5031
a(S'8463'
p5032
S'3786'
p5033
F5.057971363547369
tp5034
a(S'3786'
p5035
S'7850'
p5036
F0.659880752217284
tp5037
a(S'7850'
p5038
S'3786'
p5039
F0.659880752217284
tp5040
a(S'3788'
p5041
S'8344'
p5042
F12.386406195474358
tp5043
a(S'8344'
p5044
S'3788'
p5045
F12.386406195474358
tp5046
a(S'3788'
p5047
S'7855'
p5048
F7.665593873832435
tp5049
a(S'7855'
p5050
S'3788'
p5051
F7.665593873832435
tp5052
a(S'3808'
p5053
S'3809'
p5054
F53.98929886685693
tp5055
a(S'3809'
p5056
S'3808'
p5057
F53.98929886685693
tp5058
a(S'3859'
p5059
S'4038'
p5060
F30.957883251959874
tp5061
a(S'4038'
p5062
S'3859'
p5063
F30.957883251959874
tp5064
a(S'3859'
p5065
S'3860'
p5066
F67.69488367205707
tp5067
a(S'3860'
p5068
S'3859'
p5069
F67.69488367205707
tp5070
a(S'3921'
p5071
S'7597'
p5072
F211.432951044522
tp5073
a(S'7597'
p5074
S'3921'
p5075
F211.432951044522
tp5076
a(S'3932'
p5077
S'3933'
p5078
F66.57851198948643
tp5079
a(S'3933'
p5080
S'3932'
p5081
F66.57851198948643
tp5082
a(S'3932'
p5083
S'6772'
p5084
F43.717458988778844
tp5085
a(S'6772'
p5086
S'3932'
p5087
F43.717458988778844
tp5088
a(S'3951'
p5089
S'3952'
p5090
F59.061364648165124
tp5091
a(S'3952'
p5092
S'3951'
p5093
F59.061364648165124
tp5094
a(S'3952'
p5095
S'5680'
p5096
F54.272563296860056
tp5097
a(S'5680'
p5098
S'3952'
p5099
F54.272563296860056
tp5100
a(S'3972'
p5101
S'8671'
p5102
F198.77783897361104
tp5103
a(S'8671'
p5104
S'3972'
p5105
F198.77783897361104
tp5106
a(S'3986'
p5107
S'7818'
p5108
F13.149000156664398
tp5109
a(S'7818'
p5110
S'3986'
p5111
F13.149000156664398
tp5112
a(S'3986'
p5113
S'8179'
p5114
F6.824714059613184
tp5115
a(S'8179'
p5116
S'3986'
p5117
F6.824714059613184
tp5118
a(S'3986'
p5119
S'5091'
p5120
F62.38498940025884
tp5121
a(S'5091'
p5122
S'3986'
p5123
F62.38498940025884
tp5124
a(S'3987'
p5125
S'8460'
p5126
F15.375773241626792
tp5127
a(S'8460'
p5128
S'3987'
p5129
F15.375773241626792
tp5130
a(S'4024'
p5131
S'4025'
p5132
F47.549855273711835
tp5133
a(S'4025'
p5134
S'4024'
p5135
F47.549855273711835
tp5136
a(S'4035'
p5137
S'4036'
p5138
F68.557876560674
tp5139
a(S'4036'
p5140
S'4035'
p5141
F68.557876560674
tp5142
a(S'4037'
p5143
S'4039'
p5144
F58.656712298543056
tp5145
a(S'4039'
p5146
S'4037'
p5147
F58.656712298543056
tp5148
a(S'4038'
p5149
S'4040'
p5150
F61.805060931215095
tp5151
a(S'4040'
p5152
S'4038'
p5153
F61.805060931215095
tp5154
a(S'4099'
p5155
S'4101'
p5156
F18.68121587523766
tp5157
a(S'4101'
p5158
S'4099'
p5159
F18.68121587523766
tp5160
a(S'4100'
p5161
S'4101'
p5162
F11.338996172806798
tp5163
a(S'4101'
p5164
S'4100'
p5165
F11.338996172806798
tp5166
a(S'4101'
p5167
S'4102'
p5168
F15.73896735873478
tp5169
a(S'4102'
p5170
S'4101'
p5171
F15.73896735873478
tp5172
a(S'4102'
p5173
S'5735'
p5174
F10.858956272010225
tp5175
a(S'5735'
p5176
S'4102'
p5177
F10.858956272010225
tp5178
a(S'4350'
p5179
S'5392'
p5180
F4.771409919016569
tp5181
a(S'5392'
p5182
S'4350'
p5183
F4.771409919016569
tp5184
a(S'4691'
p5185
S'4692'
p5186
F49.70590881074844
tp5187
a(S'4692'
p5188
S'4691'
p5189
F49.70590881074844
tp5190
a(S'4692'
p5191
S'4970'
p5192
F21.705809385640997
tp5193
a(S'4970'
p5194
S'4692'
p5195
F21.705809385640997
tp5196
a(S'4693'
p5197
S'7967'
p5198
F48.22509155751702
tp5199
a(S'7967'
p5200
S'4693'
p5201
F48.22509155751702
tp5202
a(S'4693'
p5203
S'7270'
p5204
F54.59111923636282
tp5205
a(S'7270'
p5206
S'4693'
p5207
F54.59111923636282
tp5208
a(S'4694'
p5209
S'4695'
p5210
F89.65764971324285
tp5211
a(S'4695'
p5212
S'4694'
p5213
F89.65764971324285
tp5214
a(S'4695'
p5215
S'7030'
p5216
F52.14803532578972
tp5217
a(S'7030'
p5218
S'4695'
p5219
F52.14803532578972
tp5220
a(S'4705'
p5221
S'7495'
p5222
F47.446395225351665
tp5223
a(S'7495'
p5224
S'4705'
p5225
F47.446395225351665
tp5226
a(S'4705'
p5227
S'4771'
p5228
F19.613165715517802
tp5229
a(S'4771'
p5230
S'4705'
p5231
F19.613165715517802
tp5232
a(S'4768'
p5233
S'4769'
p5234
F13.623240168331046
tp5235
a(S'4769'
p5236
S'4768'
p5237
F13.623240168331046
tp5238
a(S'4768'
p5239
S'6265'
p5240
F11.224654940488179
tp5241
a(S'6265'
p5242
S'4768'
p5243
F11.224654940488179
tp5244
a(S'4769'
p5245
S'6266'
p5246
F11.784916819444941
tp5247
a(S'6266'
p5248
S'4769'
p5249
F11.784916819444941
tp5250
a(S'4777'
p5251
S'4778'
p5252
F81.27470039650794
tp5253
a(S'4778'
p5254
S'4777'
p5255
F81.27470039650794
tp5256
a(S'4802'
p5257
S'5358'
p5258
F73.28478938507375
tp5259
a(S'5358'
p5260
S'4802'
p5261
F73.28478938507375
tp5262
a(S'4803'
p5263
S'4804'
p5264
F42.21221848506938
tp5265
a(S'4804'
p5266
S'4803'
p5267
F42.21221848506938
tp5268
a(S'4817'
p5269
S'4818'
p5270
F65.84941469821419
tp5271
a(S'4818'
p5272
S'4817'
p5273
F65.84941469821419
tp5274
a(S'4819'
p5275
S'4820'
p5276
F39.31161991092209
tp5277
a(S'4820'
p5278
S'4819'
p5279
F39.31161991092209
tp5280
a(S'4821'
p5281
S'4822'
p5282
F14.37610784441117
tp5283
a(S'4822'
p5284
S'4821'
p5285
F14.37610784441117
tp5286
a(S'4822'
p5287
S'5217'
p5288
F6.465755297315887
tp5289
a(S'5217'
p5290
S'4822'
p5291
F6.465755297315887
tp5292
a(S'4843'
p5293
S'4844'
p5294
F47.06840214897714
tp5295
a(S'4844'
p5296
S'4843'
p5297
F47.06840214897714
tp5298
a(S'4845'
p5299
S'6912'
p5300
F4.001734645346133
tp5301
a(S'6912'
p5302
S'4845'
p5303
F4.001734645346133
tp5304
a(S'4845'
p5305
S'6911'
p5306
F45.06501428894485
tp5307
a(S'6911'
p5308
S'4845'
p5309
F45.06501428894485
tp5310
a(S'4846'
p5311
S'5674'
p5312
F41.918842885081105
tp5313
a(S'5674'
p5314
S'4846'
p5315
F41.918842885081105
tp5316
a(S'4846'
p5317
S'5510'
p5318
F24.782075176814118
tp5319
a(S'5510'
p5320
S'4846'
p5321
F24.782075176814118
tp5322
a(S'4846'
p5323
S'6912'
p5324
F4.644335218048589
tp5325
a(S'6912'
p5326
S'4846'
p5327
F4.644335218048589
tp5328
a(S'4887'
p5329
S'7892'
p5330
F1.946750870845416
tp5331
a(S'7892'
p5332
S'4887'
p5333
F1.946750870845416
tp5334
a(S'4887'
p5335
S'7660'
p5336
F4.537828267470186
tp5337
a(S'7660'
p5338
S'4887'
p5339
F4.537828267470186
tp5340
a(S'4887'
p5341
S'7661'
p5342
F30.449534975313686
tp5343
a(S'7661'
p5344
S'4887'
p5345
F30.449534975313686
tp5346
a(S'4887'
p5347
S'8219'
p5348
F63.80026397525354
tp5349
a(S'8219'
p5350
S'4887'
p5351
F63.80026397525354
tp5352
a(S'4917'
p5353
S'6618'
p5354
F28.496293821143876
tp5355
a(S'6618'
p5356
S'4917'
p5357
F28.496293821143876
tp5358
a(S'4939'
p5359
S'4945'
p5360
F47.118535937582024
tp5361
a(S'4945'
p5362
S'4939'
p5363
F47.118535937582024
tp5364
a(S'4939'
p5365
S'4947'
p5366
F11.117692095619098
tp5367
a(S'4947'
p5368
S'4939'
p5369
F11.117692095619098
tp5370
a(S'4940'
p5371
S'8735'
p5372
F69.20844616006656
tp5373
a(S'8735'
p5374
S'4940'
p5375
F69.20844616006656
tp5376
a(S'4941'
p5377
S'4942'
p5378
F45.795015790214904
tp5379
a(S'4942'
p5380
S'4941'
p5381
F45.795015790214904
tp5382
a(S'4941'
p5383
S'8673'
p5384
F6.719105302712745
tp5385
a(S'8673'
p5386
S'4941'
p5387
F6.719105302712745
tp5388
a(S'4943'
p5389
S'5783'
p5390
F52.22212326685602
tp5391
a(S'5783'
p5392
S'4943'
p5393
F52.22212326685602
tp5394
a(S'4943'
p5395
S'4947'
p5396
F25.02603520964525
tp5397
a(S'4947'
p5398
S'4943'
p5399
F25.02603520964525
tp5400
a(S'4944'
p5401
S'4945'
p5402
F31.389897977894087
tp5403
a(S'4945'
p5404
S'4944'
p5405
F31.389897977894087
tp5406
a(S'4944'
p5407
S'4946'
p5408
F38.46313810343308
tp5409
a(S'4946'
p5410
S'4944'
p5411
F38.46313810343308
tp5412
a(S'4945'
p5413
S'4946'
p5414
F15.755803066358812
tp5415
a(S'4946'
p5416
S'4945'
p5417
F15.755803066358812
tp5418
a(S'4945'
p5419
S'8735'
p5420
F46.72566826170315
tp5421
a(S'8735'
p5422
S'4945'
p5423
F46.72566826170315
tp5424
a(S'4946'
p5425
S'5783'
p5426
F22.01980807737766
tp5427
a(S'5783'
p5428
S'4946'
p5429
F22.01980807737766
tp5430
a(S'4946'
p5431
S'4947'
p5432
F51.129861180177926
tp5433
a(S'4947'
p5434
S'4946'
p5435
F51.129861180177926
tp5436
a(S'4968'
p5437
S'4969'
p5438
F26.51538406615461
tp5439
a(S'4969'
p5440
S'4968'
p5441
F26.51538406615461
tp5442
a(S'4969'
p5443
S'4970'
p5444
F30.51395514622831
tp5445
a(S'4970'
p5446
S'4969'
p5447
F30.51395514622831
tp5448
a(S'4969'
p5449
S'5883'
p5450
F2.310557570045083
tp5451
a(S'5883'
p5452
S'4969'
p5453
F2.310557570045083
tp5454
a(S'4971'
p5455
S'4972'
p5456
F25.80048232077658
tp5457
a(S'4972'
p5458
S'4971'
p5459
F25.80048232077658
tp5460
a(S'4971'
p5461
S'5206'
p5462
F24.38054724518473
tp5463
a(S'5206'
p5464
S'4971'
p5465
F24.38054724518473
tp5466
a(S'4972'
p5467
S'5206'
p5468
F22.59474455168763
tp5469
a(S'5206'
p5470
S'4972'
p5471
F22.59474455168763
tp5472
a(S'4973'
p5473
S'5217'
p5474
F19.07167233095723
tp5475
a(S'5217'
p5476
S'4973'
p5477
F19.07167233095723
tp5478
a(S'4973'
p5479
S'5211'
p5480
F36.10360663829749
tp5481
a(S'5211'
p5482
S'4973'
p5483
F36.10360663829749
tp5484
a(S'4974'
p5485
S'4983'
p5486
F5.967332760776861
tp5487
a(S'4983'
p5488
S'4974'
p5489
F5.967332760776861
tp5490
a(S'4974'
p5491
S'7004'
p5492
F92.6369297052264
tp5493
a(S'7004'
p5494
S'4974'
p5495
F92.6369297052264
tp5496
a(S'4976'
p5497
S'4977'
p5498
F6.020995026463912
tp5499
a(S'4977'
p5500
S'4976'
p5501
F6.020995026463912
tp5502
a(S'4978'
p5503
S'4979'
p5504
F7.705673553593243
tp5505
a(S'4979'
p5506
S'4978'
p5507
F7.705673553593243
tp5508
a(S'4979'
p5509
S'5509'
p5510
F21.68858825706742
tp5511
a(S'5509'
p5512
S'4979'
p5513
F21.68858825706742
tp5514
a(S'4983'
p5515
S'6913'
p5516
F13.214975120513351
tp5517
a(S'6913'
p5518
S'4983'
p5519
F13.214975120513351
tp5520
a(S'4984'
p5521
S'6913'
p5522
F18.317092664572414
tp5523
a(S'6913'
p5524
S'4984'
p5525
F18.317092664572414
tp5526
a(S'4984'
p5527
S'4985'
p5528
F51.2385836593797
tp5529
a(S'4985'
p5530
S'4984'
p5531
F51.2385836593797
tp5532
a(S'4985'
p5533
S'8670'
p5534
F37.87578957151432
tp5535
a(S'8670'
p5536
S'4985'
p5537
F37.87578957151432
tp5538
a(S'4993'
p5539
S'7831'
p5540
F6.59825597429182
tp5541
a(S'7831'
p5542
S'4993'
p5543
F6.59825597429182
tp5544
a(S'4996'
p5545
S'8460'
p5546
F16.93622086813272
tp5547
a(S'8460'
p5548
S'4996'
p5549
F16.93622086813272
tp5550
a(S'4996'
p5551
S'7907'
p5552
F10.28933668311821
tp5553
a(S'7907'
p5554
S'4996'
p5555
F10.28933668311821
tp5556
a(S'4997'
p5557
S'7906'
p5558
F29.55932731112101
tp5559
a(S'7906'
p5560
S'4997'
p5561
F29.55932731112101
tp5562
a(S'4997'
p5563
S'7819'
p5564
F28.554965646862705
tp5565
a(S'7819'
p5566
S'4997'
p5567
F28.554965646862705
tp5568
a(S'4997'
p5569
S'7909'
p5570
F43.46923256908658
tp5571
a(S'7909'
p5572
S'4997'
p5573
F43.46923256908658
tp5574
a(S'4999'
p5575
S'7007'
p5576
F84.45423038357947
tp5577
a(S'7007'
p5578
S'4999'
p5579
F84.45423038357947
tp5580
a(S'5004'
p5581
S'5006'
p5582
F50.587048205709536
tp5583
a(S'5006'
p5584
S'5004'
p5585
F50.587048205709536
tp5586
a(S'5005'
p5587
S'7584'
p5588
F38.866835130584484
tp5589
a(S'7584'
p5590
S'5005'
p5591
F38.866835130584484
tp5592
a(S'5005'
p5593
S'5006'
p5594
F90.57017603347586
tp5595
a(S'5006'
p5596
S'5005'
p5597
F90.57017603347586
tp5598
a(S'5006'
p5599
S'7020'
p5600
F34.621627027748715
tp5601
a(S'7020'
p5602
S'5006'
p5603
F34.621627027748715
tp5604
a(S'5007'
p5605
S'5008'
p5606
F59.46753037581415
tp5607
a(S'5008'
p5608
S'5007'
p5609
F59.46753037581415
tp5610
a(S'5020'
p5611
S'5021'
p5612
F35.497249596214544
tp5613
a(S'5021'
p5614
S'5020'
p5615
F35.497249596214544
tp5616
a(S'5021'
p5617
S'5274'
p5618
F10.584160308558365
tp5619
a(S'5274'
p5620
S'5021'
p5621
F10.584160308558365
tp5622
a(S'5041'
p5623
S'5043'
p5624
F12.622567278610868
tp5625
a(S'5043'
p5626
S'5041'
p5627
F12.622567278610868
tp5628
a(S'5042'
p5629
S'5043'
p5630
F13.293682338833062
tp5631
a(S'5043'
p5632
S'5042'
p5633
F13.293682338833062
tp5634
a(S'5043'
p5635
S'5790'
p5636
F20.347369129181143
tp5637
a(S'5790'
p5638
S'5043'
p5639
F20.347369129181143
tp5640
a(S'5089'
p5641
S'5135'
p5642
F115.99874314509918
tp5643
a(S'5135'
p5644
S'5089'
p5645
F115.99874314509918
tp5646
a(S'5090'
p5647
S'8492'
p5648
F59.24258517797387
tp5649
a(S'8492'
p5650
S'5090'
p5651
F59.24258517797387
tp5652
a(S'5091'
p5653
S'8186'
p5654
F6.085494859196936
tp5655
a(S'8186'
p5656
S'5091'
p5657
F6.085494859196936
tp5658
a(S'5091'
p5659
S'8529'
p5660
F63.75025069412164
tp5661
a(S'8529'
p5662
S'5091'
p5663
F63.75025069412164
tp5664
a(S'5092'
p5665
S'7818'
p5666
F10.227608432178265
tp5667
a(S'7818'
p5668
S'5092'
p5669
F10.227608432178265
tp5670
a(S'5092'
p5671
S'8190'
p5672
F6.494709155899397
tp5673
a(S'8190'
p5674
S'5092'
p5675
F6.494709155899397
tp5676
a(S'5093'
p5677
S'7888'
p5678
F5.138786489057723
tp5679
a(S'7888'
p5680
S'5093'
p5681
F5.138786489057723
tp5682
a(S'5093'
p5683
S'5860'
p5684
F3.086260791712426
tp5685
a(S'5860'
p5686
S'5093'
p5687
F3.086260791712426
tp5688
a(S'5093'
p5689
S'8543'
p5690
F53.51629730652783
tp5691
a(S'8543'
p5692
S'5093'
p5693
F53.51629730652783
tp5694
a(S'5094'
p5695
S'5095'
p5696
F19.212787764880535
tp5697
a(S'5095'
p5698
S'5094'
p5699
F19.212787764880535
tp5700
a(S'5095'
p5701
S'5096'
p5702
F19.389334521368916
tp5703
a(S'5096'
p5704
S'5095'
p5705
F19.389334521368916
tp5706
a(S'5095'
p5707
S'5098'
p5708
F83.06846445533623
tp5709
a(S'5098'
p5710
S'5095'
p5711
F83.06846445533623
tp5712
a(S'5095'
p5713
S'7888'
p5714
F42.29400649411616
tp5715
a(S'7888'
p5716
S'5095'
p5717
F42.29400649411616
tp5718
a(S'5097'
p5719
S'5862'
p5720
F35.74608607745439
tp5721
a(S'5862'
p5722
S'5097'
p5723
F35.74608607745439
tp5724
a(S'5101'
p5725
S'5108'
p5726
F31.21897359393121
tp5727
a(S'5108'
p5728
S'5101'
p5729
F31.21897359393121
tp5730
a(S'5102'
p5731
S'5109'
p5732
F5.431895016059317
tp5733
a(S'5109'
p5734
S'5102'
p5735
F5.431895016059317
tp5736
a(S'5102'
p5737
S'5108'
p5738
F9.55808728807325
tp5739
a(S'5108'
p5740
S'5102'
p5741
F9.55808728807325
tp5742
a(S'5103'
p5743
S'5104'
p5744
F3.003070573919684
tp5745
a(S'5104'
p5746
S'5103'
p5747
F3.003070573919684
tp5748
a(S'5105'
p5749
S'5107'
p5750
F12.723548329887155
tp5751
a(S'5107'
p5752
S'5105'
p5753
F12.723548329887155
tp5754
a(S'5105'
p5755
S'5106'
p5756
F16.064741415496005
tp5757
a(S'5106'
p5758
S'5105'
p5759
F16.064741415496005
tp5760
a(S'5106'
p5761
S'5107'
p5762
F13.397887408166167
tp5763
a(S'5107'
p5764
S'5106'
p5765
F13.397887408166167
tp5766
a(S'5106'
p5767
S'5108'
p5768
F17.309834315852992
tp5769
a(S'5108'
p5770
S'5106'
p5771
F17.309834315852992
tp5772
a(S'5129'
p5773
S'5132'
p5774
F20.99376357915823
tp5775
a(S'5132'
p5776
S'5129'
p5777
F20.99376357915823
tp5778
a(S'5130'
p5779
S'5132'
p5780
F12.008420947923302
tp5781
a(S'5132'
p5782
S'5130'
p5783
F12.008420947923302
tp5784
a(S'5131'
p5785
S'5216'
p5786
F19.500998949719865
tp5787
a(S'5216'
p5788
S'5131'
p5789
F19.500998949719865
tp5790
a(S'5133'
p5791
S'5135'
p5792
F25.591103260196075
tp5793
a(S'5135'
p5794
S'5133'
p5795
F25.591103260196075
tp5796
a(S'5133'
p5797
S'5136'
p5798
F18.965292013913587
tp5799
a(S'5136'
p5800
S'5133'
p5801
F18.965292013913587
tp5802
a(S'5135'
p5803
S'5136'
p5804
F30.325777581679475
tp5805
a(S'5136'
p5806
S'5135'
p5807
F30.325777581679475
tp5808
a(S'5167'
p5809
S'5168'
p5810
F52.09709944640277
tp5811
a(S'5168'
p5812
S'5167'
p5813
F52.09709944640277
tp5814
a(S'5205'
p5815
S'5379'
p5816
F26.426058216453573
tp5817
a(S'5379'
p5818
S'5205'
p5819
F26.426058216453573
tp5820
a(S'5207'
p5821
S'5208'
p5822
F45.1369606110616
tp5823
a(S'5208'
p5824
S'5207'
p5825
F45.1369606110616
tp5826
a(S'5208'
p5827
S'8734'
p5828
F17.364195679795753
tp5829
a(S'8734'
p5830
S'5208'
p5831
F17.364195679795753
tp5832
a(S'5210'
p5833
S'5218'
p5834
F9.150311882844898
tp5835
a(S'5218'
p5836
S'5210'
p5837
F9.150311882844898
tp5838
a(S'5210'
p5839
S'5211'
p5840
F15.309044486654926
tp5841
a(S'5211'
p5842
S'5210'
p5843
F15.309044486654926
tp5844
a(S'5211'
p5845
S'5217'
p5846
F18.166370293440185
tp5847
a(S'5217'
p5848
S'5211'
p5849
F18.166370293440185
tp5850
a(S'5212'
p5851
S'5215'
p5852
F19.72576348288879
tp5853
a(S'5215'
p5854
S'5212'
p5855
F19.72576348288879
tp5856
a(S'5212'
p5857
S'5219'
p5858
F35.50273336285129
tp5859
a(S'5219'
p5860
S'5212'
p5861
F35.50273336285129
tp5862
a(S'5212'
p5863
S'5214'
p5864
F14.97407969041597
tp5865
a(S'5214'
p5866
S'5212'
p5867
F14.97407969041597
tp5868
a(S'5213'
p5869
S'5218'
p5870
F2.825124660159293
tp5871
a(S'5218'
p5872
S'5213'
p5873
F2.825124660159293
tp5874
a(S'5214'
p5875
S'5216'
p5876
F16.6876439639641
tp5877
a(S'5216'
p5878
S'5214'
p5879
F16.6876439639641
tp5880
a(S'5214'
p5881
S'5218'
p5882
F9.354009512611704
tp5883
a(S'5218'
p5884
S'5214'
p5885
F9.354009512611704
tp5886
a(S'5215'
p5887
S'5216'
p5888
F27.553120268100976
tp5889
a(S'5216'
p5890
S'5215'
p5891
F27.553120268100976
tp5892
a(S'5215'
p5893
S'5219'
p5894
F20.174109057545778
tp5895
a(S'5219'
p5896
S'5215'
p5897
F20.174109057545778
tp5898
a(S'5276'
p5899
S'5277'
p5900
F13.721444063903864
tp5901
a(S'5277'
p5902
S'5276'
p5903
F13.721444063903864
tp5904
a(S'5358'
p5905
S'5517'
p5906
F27.994407700208882
tp5907
a(S'5517'
p5908
S'5358'
p5909
F27.994407700208882
tp5910
a(S'5359'
p5911
S'5360'
p5912
F207.5158401735463
tp5913
a(S'5360'
p5914
S'5359'
p5915
F207.5158401735463
tp5916
a(S'5360'
p5917
S'8679'
p5918
F259.74046576270814
tp5919
a(S'8679'
p5920
S'5360'
p5921
F259.74046576270814
tp5922
a(S'5361'
p5923
S'5362'
p5924
F45.77196385558919
tp5925
a(S'5362'
p5926
S'5361'
p5927
F45.77196385558919
tp5928
a(S'5377'
p5929
S'7543'
p5930
F11.164581206106327
tp5931
a(S'7543'
p5932
S'5377'
p5933
F11.164581206106327
tp5934
a(S'5378'
p5935
S'8681'
p5936
F8.460263302818042
tp5937
a(S'8681'
p5938
S'5378'
p5939
F8.460263302818042
tp5940
a(S'5379'
p5941
S'8680'
p5942
F7.773804124097187
tp5943
a(S'8680'
p5944
S'5379'
p5945
F7.773804124097187
tp5946
a(S'5379'
p5947
S'8679'
p5948
F7.845733200426297
tp5949
a(S'8679'
p5950
S'5379'
p5951
F7.845733200426297
tp5952
a(S'5380'
p5953
S'5731'
p5954
F26.432885122449683
tp5955
a(S'5731'
p5956
S'5380'
p5957
F26.432885122449683
tp5958
a(S'5382'
p5959
S'8264'
p5960
F12.066100392906817
tp5961
a(S'8264'
p5962
S'5382'
p5963
F12.066100392906817
tp5964
a(S'5383'
p5965
S'5384'
p5966
F2.858716389167252
tp5967
a(S'5384'
p5968
S'5383'
p5969
F2.858716389167252
tp5970
a(S'5383'
p5971
S'8832'
p5972
F26.91319483400258
tp5973
a(S'8832'
p5974
S'5383'
p5975
F26.91319483400258
tp5976
a(S'5383'
p5977
S'8681'
p5978
F50.365893763123054
tp5979
a(S'8681'
p5980
S'5383'
p5981
F50.365893763123054
tp5982
a(S'5386'
p5983
S'5393'
p5984
F156.64460040998566
tp5985
a(S'5393'
p5986
S'5386'
p5987
F156.64460040998566
tp5988
a(S'5386'
p5989
S'5394'
p5990
F62.91356894828408
tp5991
a(S'5394'
p5992
S'5386'
p5993
F62.91356894828408
tp5994
a(S'5387'
p5995
S'5389'
p5996
F109.92421954401651
tp5997
a(S'5389'
p5998
S'5387'
p5999
F109.92421954401651
tp6000
a(S'5388'
p6001
S'5391'
p6002
F56.17057412128675
tp6003
a(S'5391'
p6004
S'5388'
p6005
F56.17057412128675
tp6006
a(S'5389'
p6007
S'5393'
p6008
F95.47298343060336
tp6009
a(S'5393'
p6010
S'5389'
p6011
F95.47298343060336
tp6012
a(S'5392'
p6013
S'5397'
p6014
F9.648982104242695
tp6015
a(S'5397'
p6016
S'5392'
p6017
F9.648982104242695
tp6018
a(S'5394'
p6019
S'5397'
p6020
F10.859744821354528
tp6021
a(S'5397'
p6022
S'5394'
p6023
F10.859744821354528
tp6024
a(S'5394'
p6025
S'5395'
p6026
F3.466119758661997
tp6027
a(S'5395'
p6028
S'5394'
p6029
F3.466119758661997
tp6030
a(S'5396'
p6031
S'5397'
p6032
F2.391613115237216
tp6033
a(S'5397'
p6034
S'5396'
p6035
F2.391613115237216
tp6036
a(S'5433'
p6037
S'5781'
p6038
F47.180409633377735
tp6039
a(S'5781'
p6040
S'5433'
p6041
F47.180409633377735
tp6042
a(S'5433'
p6043
S'5780'
p6044
F62.62401105966563
tp6045
a(S'5780'
p6046
S'5433'
p6047
F62.62401105966563
tp6048
a(S'5498'
p6049
S'7613'
p6050
F3.17400406982452
tp6051
a(S'7613'
p6052
S'5498'
p6053
F3.17400406982452
tp6054
a(S'5510'
p6055
S'6914'
p6056
F5.761868607453799
tp6057
a(S'6914'
p6058
S'5510'
p6059
F5.761868607453799
tp6060
a(S'5510'
p6061
S'5680'
p6062
F35.24616193136737
tp6063
a(S'5680'
p6064
S'5510'
p6065
F35.24616193136737
tp6066
a(S'5519'
p6067
S'5936'
p6068
F38.480244326901285
tp6069
a(S'5936'
p6070
S'5519'
p6071
F38.480244326901285
tp6072
a(S'5520'
p6073
S'5521'
p6074
F29.71158292764759
tp6075
a(S'5521'
p6076
S'5520'
p6077
F29.71158292764759
tp6078
a(S'5616'
p6079
S'5617'
p6080
F6.42124084686909
tp6081
a(S'5617'
p6082
S'5616'
p6083
F6.42124084686909
tp6084
a(S'5673'
p6085
S'6913'
p6086
F12.707433962980268
tp6087
a(S'6913'
p6088
S'5673'
p6089
F12.707433962980268
tp6090
a(S'5673'
p6091
S'6914'
p6092
F14.897666667781646
tp6093
a(S'6914'
p6094
S'5673'
p6095
F14.897666667781646
tp6096
a(S'5674'
p6097
S'6911'
p6098
F4.030866690613824
tp6099
a(S'6911'
p6100
S'5674'
p6101
F4.030866690613824
tp6102
a(S'5725'
p6103
S'5728'
p6104
F61.626605220998435
tp6105
a(S'5728'
p6106
S'5725'
p6107
F61.626605220998435
tp6108
a(S'5725'
p6109
S'8678'
p6110
F72.6374977908041
tp6111
a(S'8678'
p6112
S'5725'
p6113
F72.6374977908041
tp6114
a(S'5726'
p6115
S'8258'
p6116
F4.253819138245032
tp6117
a(S'8258'
p6118
S'5726'
p6119
F4.253819138245032
tp6120
a(S'5726'
p6121
S'5936'
p6122
F127.71548794647651
tp6123
a(S'5936'
p6124
S'5726'
p6125
F127.71548794647651
tp6126
a(S'5726'
p6127
S'5731'
p6128
F73.9231007277226
tp6129
a(S'5731'
p6130
S'5726'
p6131
F73.9231007277226
tp6132
a(S'5727'
p6133
S'8678'
p6134
F91.94539554820776
tp6135
a(S'8678'
p6136
S'5727'
p6137
F91.94539554820776
tp6138
a(S'5727'
p6139
S'5729'
p6140
F51.93447251214734
tp6141
a(S'5729'
p6142
S'5727'
p6143
F51.93447251214734
tp6144
a(S'5728'
p6145
S'5733'
p6146
F7.173064555486615
tp6147
a(S'5733'
p6148
S'5728'
p6149
F7.173064555486615
tp6150
a(S'5729'
p6151
S'7821'
p6152
F60.232813950654105
tp6153
a(S'7821'
p6154
S'5729'
p6155
F60.232813950654105
tp6156
a(S'5729'
p6157
S'5730'
p6158
F103.78664587505193
tp6159
a(S'5730'
p6160
S'5729'
p6161
F103.78664587505193
tp6162
a(S'5730'
p6163
S'8680'
p6164
F23.189119541004274
tp6165
a(S'8680'
p6166
S'5730'
p6167
F23.189119541004274
tp6168
a(S'5733'
p6169
S'8258'
p6170
F6.346194137548108
tp6171
a(S'8258'
p6172
S'5733'
p6173
F6.346194137548108
tp6174
a(S'5733'
p6175
S'8677'
p6176
F129.323414821317
tp6177
a(S'8677'
p6178
S'5733'
p6179
F129.323414821317
tp6180
a(S'5734'
p6181
S'8188'
p6182
F6.116632318915906
tp6183
a(S'8188'
p6184
S'5734'
p6185
F6.116632318915906
tp6186
a(S'5736'
p6187
S'5743'
p6188
F124.21492426321132
tp6189
a(S'5743'
p6190
S'5736'
p6191
F124.21492426321132
tp6192
a(S'5737'
p6193
S'5740'
p6194
F50.696376204449265
tp6195
a(S'5740'
p6196
S'5737'
p6197
F50.696376204449265
tp6198
a(S'5738'
p6199
S'5742'
p6200
F78.72979811753062
tp6201
a(S'5742'
p6202
S'5738'
p6203
F78.72979811753062
tp6204
a(S'5741'
p6205
S'5744'
p6206
F68.07713671858974
tp6207
a(S'5744'
p6208
S'5741'
p6209
F68.07713671858974
tp6210
a(S'5742'
p6211
S'7530'
p6212
F123.10387378577454
tp6213
a(S'7530'
p6214
S'5742'
p6215
F123.10387378577454
tp6216
a(S'5745'
p6217
S'5746'
p6218
F12.217784686309763
tp6219
a(S'5746'
p6220
S'5745'
p6221
F12.217784686309763
tp6222
a(S'5745'
p6223
S'5747'
p6224
F33.01718589463791
tp6225
a(S'5747'
p6226
S'5745'
p6227
F33.01718589463791
tp6228
a(S'5746'
p6229
S'5748'
p6230
F34.93885223050244
tp6231
a(S'5748'
p6232
S'5746'
p6233
F34.93885223050244
tp6234
a(S'5749'
p6235
S'5750'
p6236
F43.16648159987868
tp6237
a(S'5750'
p6238
S'5749'
p6239
F43.16648159987868
tp6240
a(S'5751'
p6241
S'5752'
p6242
F51.99444066126671
tp6243
a(S'5752'
p6244
S'5751'
p6245
F51.99444066126671
tp6246
a(S'5753'
p6247
S'5754'
p6248
F33.920056281499754
tp6249
a(S'5754'
p6250
S'5753'
p6251
F33.920056281499754
tp6252
a(S'5755'
p6253
S'5756'
p6254
F59.635644702743235
tp6255
a(S'5756'
p6256
S'5755'
p6257
F59.635644702743235
tp6258
a(S'5768'
p6259
S'8674'
p6260
F63.9686148785404
tp6261
a(S'8674'
p6262
S'5768'
p6263
F63.9686148785404
tp6264
a(S'5782'
p6265
S'5783'
p6266
F61.93484687170032
tp6267
a(S'5783'
p6268
S'5782'
p6269
F61.93484687170032
tp6270
a(S'5784'
p6271
S'5785'
p6272
F45.11398187314286
tp6273
a(S'5785'
p6274
S'5784'
p6275
F45.11398187314286
tp6276
a(S'5785'
p6277
S'8673'
p6278
F100.89772993946897
tp6279
a(S'8673'
p6280
S'5785'
p6281
F100.89772993946897
tp6282
a(S'5791'
p6283
S'5792'
p6284
F45.417695247255466
tp6285
a(S'5792'
p6286
S'5791'
p6287
F45.417695247255466
tp6288
a(S'5851'
p6289
S'5853'
p6290
F113.9730050260146
tp6291
a(S'5853'
p6292
S'5851'
p6293
F113.9730050260146
tp6294
a(S'5852'
p6295
S'5854'
p6296
F50.941285690536404
tp6297
a(S'5854'
p6298
S'5852'
p6299
F50.941285690536404
tp6300
a(S'5857'
p6301
S'5863'
p6302
F2.23983899944573
tp6303
a(S'5863'
p6304
S'5857'
p6305
F2.23983899944573
tp6306
a(S'5857'
p6307
S'5864'
p6308
F29.889551100508225
tp6309
a(S'5864'
p6310
S'5857'
p6311
F29.889551100508225
tp6312
a(S'5857'
p6313
S'5858'
p6314
F28.2190806206886
tp6315
a(S'5858'
p6316
S'5857'
p6317
F28.2190806206886
tp6318
a(S'5858'
p6319
S'5859'
p6320
F17.680065458949013
tp6321
a(S'5859'
p6322
S'5858'
p6323
F17.680065458949013
tp6324
a(S'5858'
p6325
S'5860'
p6326
F33.0639782578586
tp6327
a(S'5860'
p6328
S'5858'
p6329
F33.0639782578586
tp6330
a(S'5860'
p6331
S'5862'
p6332
F5.308627077092588
tp6333
a(S'5862'
p6334
S'5860'
p6335
F5.308627077092588
tp6336
a(S'5861'
p6337
S'5862'
p6338
F23.170770825508836
tp6339
a(S'5862'
p6340
S'5861'
p6341
F23.170770825508836
tp6342
a(S'5864'
p6343
S'7820'
p6344
F50.53152301050403
tp6345
a(S'7820'
p6346
S'5864'
p6347
F50.53152301050403
tp6348
a(S'5865'
p6349
S'5866'
p6350
F17.971923531787283
tp6351
a(S'5866'
p6352
S'5865'
p6353
F17.971923531787283
tp6354
a(S'5868'
p6355
S'5906'
p6356
F20.974588927178427
tp6357
a(S'5906'
p6358
S'5868'
p6359
F20.974588927178427
tp6360
a(S'5869'
p6361
S'5874'
p6362
F11.472275734812673
tp6363
a(S'5874'
p6364
S'5869'
p6365
F11.472275734812673
tp6366
a(S'5869'
p6367
S'5870'
p6368
F26.33300749159346
tp6369
a(S'5870'
p6370
S'5869'
p6371
F26.33300749159346
tp6372
a(S'5870'
p6373
S'5871'
p6374
F43.899481919217735
tp6375
a(S'5871'
p6376
S'5870'
p6377
F43.899481919217735
tp6378
a(S'5870'
p6379
S'5873'
p6380
F7.268567232007447
tp6381
a(S'5873'
p6382
S'5870'
p6383
F7.268567232007447
tp6384
a(S'5871'
p6385
S'5875'
p6386
F11.581992075376947
tp6387
a(S'5875'
p6388
S'5871'
p6389
F11.581992075376947
tp6390
a(S'5871'
p6391
S'5872'
p6392
F7.77998014335165
tp6393
a(S'5872'
p6394
S'5871'
p6395
F7.77998014335165
tp6396
a(S'5873'
p6397
S'5875'
p6398
F49.7720909179098
tp6399
a(S'5875'
p6400
S'5873'
p6401
F49.7720909179098
tp6402
a(S'5877'
p6403
S'5878'
p6404
F69.83528867113631
tp6405
a(S'5878'
p6406
S'5877'
p6407
F69.83528867113631
tp6408
a(S'5879'
p6409
S'5880'
p6410
F27.222707845005967
tp6411
a(S'5880'
p6412
S'5879'
p6413
F27.222707845005967
tp6414
a(S'5881'
p6415
S'5905'
p6416
F56.130712395705224
tp6417
a(S'5905'
p6418
S'5881'
p6419
F56.130712395705224
tp6420
a(S'5897'
p6421
S'7008'
p6422
F27.971289582754093
tp6423
a(S'7008'
p6424
S'5897'
p6425
F27.971289582754093
tp6426
a(S'5898'
p6427
S'7022'
p6428
F28.555826840969434
tp6429
a(S'7022'
p6430
S'5898'
p6431
F28.555826840969434
tp6432
a(S'5899'
p6433
S'7022'
p6434
F18.849946147264003
tp6435
a(S'7022'
p6436
S'5899'
p6437
F18.849946147264003
tp6438
a(S'5907'
p6439
S'5908'
p6440
F16.17474714246273
tp6441
a(S'5908'
p6442
S'5907'
p6443
F16.17474714246273
tp6444
a(S'5928'
p6445
S'5929'
p6446
F50.34581722882116
tp6447
a(S'5929'
p6448
S'5928'
p6449
F50.34581722882116
tp6450
a(S'5934'
p6451
S'5936'
p6452
F120.3296972567662
tp6453
a(S'5936'
p6454
S'5934'
p6455
F120.3296972567662
tp6456
a(S'5959'
p6457
S'6746'
p6458
F83.73818969302205
tp6459
a(S'6746'
p6460
S'5959'
p6461
F83.73818969302205
tp6462
a(S'6537'
p6463
S'6538'
p6464
F57.85180871605543
tp6465
a(S'6538'
p6466
S'6537'
p6467
F57.85180871605543
tp6468
a(S'6574'
p6469
S'6575'
p6470
F61.92394739434958
tp6471
a(S'6575'
p6472
S'6574'
p6473
F61.92394739434958
tp6474
a(S'6589'
p6475
S'6590'
p6476
F46.10606212727285
tp6477
a(S'6590'
p6478
S'6589'
p6479
F46.10606212727285
tp6480
a(S'6606'
p6481
S'6607'
p6482
F3.55122455092776
tp6483
a(S'6607'
p6484
S'6606'
p6485
F3.55122455092776
tp6486
a(S'6648'
p6487
S'6747'
p6488
F22.226513605301314
tp6489
a(S'6747'
p6490
S'6648'
p6491
F22.226513605301314
tp6492
a(S'6747'
p6493
S'6748'
p6494
F18.847697352887774
tp6495
a(S'6748'
p6496
S'6747'
p6497
F18.847697352887774
tp6498
a(S'6751'
p6499
S'6753'
p6500
F116.03813416950348
tp6501
a(S'6753'
p6502
S'6751'
p6503
F116.03813416950348
tp6504
a(S'6752'
p6505
S'6755'
p6506
F12.962190090734286
tp6507
a(S'6755'
p6508
S'6752'
p6509
F12.962190090734286
tp6510
a(S'6752'
p6511
S'6754'
p6512
F37.91170828771161
tp6513
a(S'6754'
p6514
S'6752'
p6515
F37.91170828771161
tp6516
a(S'6752'
p6517
S'6753'
p6518
F16.25441566271552
tp6519
a(S'6753'
p6520
S'6752'
p6521
F16.25441566271552
tp6522
a(S'6753'
p6523
S'6755'
p6524
F27.68408584748579
tp6525
a(S'6755'
p6526
S'6753'
p6527
F27.68408584748579
tp6528
a(S'6754'
p6529
S'6755'
p6530
F23.224083608525245
tp6531
a(S'6755'
p6532
S'6754'
p6533
F23.224083608525245
tp6534
a(S'6754'
p6535
S'6756'
p6536
F15.390344288709601
tp6537
a(S'6756'
p6538
S'6754'
p6539
F15.390344288709601
tp6540
a(S'6772'
p6541
S'8625'
p6542
F9.961799676020782
tp6543
a(S'8625'
p6544
S'6772'
p6545
F9.961799676020782
tp6546
a(S'6773'
p6547
S'8625'
p6548
F7.53247511264806
tp6549
a(S'8625'
p6550
S'6773'
p6551
F7.53247511264806
tp6552
a(S'6774'
p6553
S'7891'
p6554
F13.233710171474094
tp6555
a(S'7891'
p6556
S'6774'
p6557
F13.233710171474094
tp6558
a(S'6774'
p6559
S'8459'
p6560
F7.734932705536846
tp6561
a(S'8459'
p6562
S'6774'
p6563
F7.734932705536846
tp6564
a(S'6905'
p6565
S'6911'
p6566
F64.91268236670244
tp6567
a(S'6911'
p6568
S'6905'
p6569
F64.91268236670244
tp6570
a(S'6906'
p6571
S'6907'
p6572
F6.87235600014459
tp6573
a(S'6907'
p6574
S'6906'
p6575
F6.87235600014459
tp6576
a(S'6911'
p6577
S'6912'
p6578
F42.02059123452843
tp6579
a(S'6912'
p6580
S'6911'
p6581
F42.02059123452843
tp6582
a(S'6912'
p6583
S'6914'
p6584
F24.104889415392805
tp6585
a(S'6914'
p6586
S'6912'
p6587
F24.104889415392805
tp6588
a(S'7018'
p6589
S'8192'
p6590
F6.243575245757519
tp6591
a(S'8192'
p6592
S'7018'
p6593
F6.243575245757519
tp6594
a(S'7022'
p6595
S'7023'
p6596
F21.383536953302055
tp6597
a(S'7023'
p6598
S'7022'
p6599
F21.383536953302055
tp6600
a(S'7030'
p6601
S'7031'
p6602
F10.146133481869454
tp6603
a(S'7031'
p6604
S'7030'
p6605
F10.146133481869454
tp6606
a(S'7268'
p6607
S'7821'
p6608
F65.43269917672268
tp6609
a(S'7821'
p6610
S'7268'
p6611
F65.43269917672268
tp6612
a(S'7269'
p6613
S'7274'
p6614
F25.241931118644562
tp6615
a(S'7274'
p6616
S'7269'
p6617
F25.241931118644562
tp6618
a(S'7269'
p6619
S'7270'
p6620
F187.47370186234414
tp6621
a(S'7270'
p6622
S'7269'
p6623
F187.47370186234414
tp6624
a(S'7269'
p6625
S'7304'
p6626
F23.669907285445476
tp6627
a(S'7304'
p6628
S'7269'
p6629
F23.669907285445476
tp6630
a(S'7270'
p6631
S'7312'
p6632
F14.819138115521046
tp6633
a(S'7312'
p6634
S'7270'
p6635
F14.819138115521046
tp6636
a(S'7271'
p6637
S'7273'
p6638
F48.20533442613561
tp6639
a(S'7273'
p6640
S'7271'
p6641
F48.20533442613561
tp6642
a(S'7271'
p6643
S'7302'
p6644
F28.98569875555232
tp6645
a(S'7302'
p6646
S'7271'
p6647
F28.98569875555232
tp6648
a(S'7271'
p6649
S'7303'
p6650
F38.36883212586755
tp6651
a(S'7303'
p6652
S'7271'
p6653
F38.36883212586755
tp6654
a(S'7272'
p6655
S'7274'
p6656
F7.276535845837877
tp6657
a(S'7274'
p6658
S'7272'
p6659
F7.276535845837877
tp6660
a(S'7273'
p6661
S'7312'
p6662
F138.94657677922342
tp6663
a(S'7312'
p6664
S'7273'
p6665
F138.94657677922342
tp6666
a(S'7273'
p6667
S'7321'
p6668
F88.45724938582252
tp6669
a(S'7321'
p6670
S'7273'
p6671
F88.45724938582252
tp6672
a(S'7274'
p6673
S'7302'
p6674
F14.683147777212982
tp6675
a(S'7302'
p6676
S'7274'
p6677
F14.683147777212982
tp6678
a(S'7281'
p6679
S'7856'
p6680
F6.402388048260438
tp6681
a(S'7856'
p6682
S'7281'
p6683
F6.402388048260438
tp6684
a(S'7285'
p6685
S'8161'
p6686
F77.06440683872249
tp6687
a(S'8161'
p6688
S'7285'
p6689
F77.06440683872249
tp6690
a(S'7285'
p6691
S'8149'
p6692
F60.64566832519829
tp6693
a(S'8149'
p6694
S'7285'
p6695
F60.64566832519829
tp6696
a(S'7302'
p6697
S'7303'
p6698
F24.90585561172363
tp6699
a(S'7303'
p6700
S'7302'
p6701
F24.90585561172363
tp6702
a(S'7303'
p6703
S'7305'
p6704
F12.30163037497797
tp6705
a(S'7305'
p6706
S'7303'
p6707
F12.30163037497797
tp6708
a(S'7306'
p6709
S'7307'
p6710
F23.278170563548027
tp6711
a(S'7307'
p6712
S'7306'
p6713
F23.278170563548027
tp6714
a(S'7307'
p6715
S'7965'
p6716
F16.60668245817639
tp6717
a(S'7965'
p6718
S'7307'
p6719
F16.60668245817639
tp6720
a(S'7307'
p6721
S'7320'
p6722
F2.262523187638462
tp6723
a(S'7320'
p6724
S'7307'
p6725
F2.262523187638462
tp6726
a(S'7308'
p6727
S'7322'
p6728
F15.767919262136045
tp6729
a(S'7322'
p6730
S'7308'
p6731
F15.767919262136045
tp6732
a(S'7309'
p6733
S'7310'
p6734
F74.00351741222077
tp6735
a(S'7310'
p6736
S'7309'
p6737
F74.00351741222077
tp6738
a(S'7311'
p6739
S'7314'
p6740
F13.395454994007547
tp6741
a(S'7314'
p6742
S'7311'
p6743
F13.395454994007547
tp6744
a(S'7312'
p6745
S'7314'
p6746
F29.18787595629844
tp6747
a(S'7314'
p6748
S'7312'
p6749
F29.18787595629844
tp6750
a(S'7313'
p6751
S'7314'
p6752
F3.427604845026227
tp6753
a(S'7314'
p6754
S'7313'
p6755
F3.427604845026227
tp6756
a(S'7315'
p6757
S'7320'
p6758
F31.40098028833966
tp6759
a(S'7320'
p6760
S'7315'
p6761
F31.40098028833966
tp6762
a(S'7316'
p6763
S'7317'
p6764
F82.34288361605894
tp6765
a(S'7317'
p6766
S'7316'
p6767
F82.34288361605894
tp6768
a(S'7318'
p6769
S'7967'
p6770
F30.535476842436537
tp6771
a(S'7967'
p6772
S'7318'
p6773
F30.535476842436537
tp6774
a(S'7495'
p6775
S'7497'
p6776
F101.27303658934382
tp6777
a(S'7497'
p6778
S'7495'
p6779
F101.27303658934382
tp6780
a(S'7496'
p6781
S'7497'
p6782
F50.95856930932716
tp6783
a(S'7497'
p6784
S'7496'
p6785
F50.95856930932716
tp6786
a(S'7497'
p6787
S'7498'
p6788
F36.06926743559765
tp6789
a(S'7498'
p6790
S'7497'
p6791
F36.06926743559765
tp6792
a(S'7497'
p6793
S'7972'
p6794
F30.831902374335126
tp6795
a(S'7972'
p6796
S'7497'
p6797
F30.831902374335126
tp6798
a(S'7498'
p6799
S'7971'
p6800
F24.73522584580975
tp6801
a(S'7971'
p6802
S'7498'
p6803
F24.73522584580975
tp6804
a(S'7521'
p6805
S'7523'
p6806
F21.803182091152824
tp6807
a(S'7523'
p6808
S'7521'
p6809
F21.803182091152824
tp6810
a(S'7521'
p6811
S'7524'
p6812
F8.918718153002043
tp6813
a(S'7524'
p6814
S'7521'
p6815
F8.918718153002043
tp6816
a(S'7522'
p6817
S'7529'
p6818
F14.094673080554387
tp6819
a(S'7529'
p6820
S'7522'
p6821
F14.094673080554387
tp6822
a(S'7522'
p6823
S'7530'
p6824
F37.10210443715131
tp6825
a(S'7530'
p6826
S'7522'
p6827
F37.10210443715131
tp6828
a(S'7523'
p6829
S'7525'
p6830
F5.119751599239792
tp6831
a(S'7525'
p6832
S'7523'
p6833
F5.119751599239792
tp6834
a(S'7524'
p6835
S'7527'
p6836
F4.814548825399213
tp6837
a(S'7527'
p6838
S'7524'
p6839
F4.814548825399213
tp6840
a(S'7524'
p6841
S'7526'
p6842
F17.489360328624247
tp6843
a(S'7526'
p6844
S'7524'
p6845
F17.489360328624247
tp6846
a(S'7527'
p6847
S'7528'
p6848
F5.127138337810135
tp6849
a(S'7528'
p6850
S'7527'
p6851
F5.127138337810135
tp6852
a(S'7527'
p6853
S'7535'
p6854
F34.54209267652354
tp6855
a(S'7535'
p6856
S'7527'
p6857
F34.54209267652354
tp6858
a(S'7528'
p6859
S'7529'
p6860
F7.14519327101936
tp6861
a(S'7529'
p6862
S'7528'
p6863
F7.14519327101936
tp6864
a(S'7529'
p6865
S'7531'
p6866
F9.778692689792047
tp6867
a(S'7531'
p6868
S'7529'
p6869
F9.778692689792047
tp6870
a(S'7532'
p6871
S'7533'
p6872
F4.945277469554876
tp6873
a(S'7533'
p6874
S'7532'
p6875
F4.945277469554876
tp6876
a(S'7533'
p6877
S'7539'
p6878
F14.400290536460847
tp6879
a(S'7539'
p6880
S'7533'
p6881
F14.400290536460847
tp6882
a(S'7533'
p6883
S'7541'
p6884
F60.148257051650226
tp6885
a(S'7541'
p6886
S'7533'
p6887
F60.148257051650226
tp6888
a(S'7535'
p6889
S'7539'
p6890
F28.468120520470944
tp6891
a(S'7539'
p6892
S'7535'
p6893
F28.468120520470944
tp6894
a(S'7535'
p6895
S'7536'
p6896
F3.437161057863341
tp6897
a(S'7536'
p6898
S'7535'
p6899
F3.437161057863341
tp6900
a(S'7539'
p6901
S'7543'
p6902
F74.31900028530592
tp6903
a(S'7543'
p6904
S'7539'
p6905
F74.31900028530592
tp6906
a(S'7540'
p6907
S'7541'
p6908
F15.619102135730087
tp6909
a(S'7541'
p6910
S'7540'
p6911
F15.619102135730087
tp6912
a(S'7540'
p6913
S'7542'
p6914
F7.632511658983669
tp6915
a(S'7542'
p6916
S'7540'
p6917
F7.632511658983669
tp6918
a(S'7541'
p6919
S'7542'
p6920
F14.05857179253018
tp6921
a(S'7542'
p6922
S'7541'
p6923
F14.05857179253018
tp6924
a(S'7542'
p6925
S'7543'
p6926
F12.089231474938439
tp6927
a(S'7543'
p6928
S'7542'
p6929
F12.089231474938439
tp6930
a(S'7553'
p6931
S'7554'
p6932
F24.662987631229484
tp6933
a(S'7554'
p6934
S'7553'
p6935
F24.662987631229484
tp6936
a(S'7651'
p6937
S'7862'
p6938
F17.084900878703852
tp6939
a(S'7862'
p6940
S'7651'
p6941
F17.084900878703852
tp6942
a(S'7652'
p6943
S'7653'
p6944
F4.199332178765318
tp6945
a(S'7653'
p6946
S'7652'
p6947
F4.199332178765318
tp6948
a(S'7652'
p6949
S'7851'
p6950
F10.422013612766436
tp6951
a(S'7851'
p6952
S'7652'
p6953
F10.422013612766436
tp6954
a(S'7654'
p6955
S'7851'
p6956
F7.337822071848145
tp6957
a(S'7851'
p6958
S'7654'
p6959
F7.337822071848145
tp6960
a(S'7654'
p6961
S'7861'
p6962
F5.248845141679494
tp6963
a(S'7861'
p6964
S'7654'
p6965
F5.248845141679494
tp6966
a(S'7654'
p6967
S'8155'
p6968
F33.29361681448767
tp6969
a(S'8155'
p6970
S'7654'
p6971
F33.29361681448767
tp6972
a(S'7655'
p6973
S'7861'
p6974
F1.064881818189361
tp6975
a(S'7861'
p6976
S'7655'
p6977
F1.064881818189361
tp6978
a(S'7656'
p6979
S'7659'
p6980
F13.279381532711477
tp6981
a(S'7659'
p6982
S'7656'
p6983
F13.279381532711477
tp6984
a(S'7657'
p6985
S'7960'
p6986
F2.535440625434703
tp6987
a(S'7960'
p6988
S'7657'
p6989
F2.535440625434703
tp6990
a(S'7657'
p6991
S'7854'
p6992
F5.907785440836642
tp6993
a(S'7854'
p6994
S'7657'
p6995
F5.907785440836642
tp6996
a(S'7657'
p6997
S'7659'
p6998
F9.047593341975267
tp6999
a(S'7659'
p7000
S'7657'
p7001
F9.047593341975267
tp7002
a(S'7658'
p7003
S'7854'
p7004
F2.287788638802602
tp7005
a(S'7854'
p7006
S'7658'
p7007
F2.287788638802602
tp7008
a(S'7659'
p7009
S'7855'
p7010
F5.973785497726411
tp7011
a(S'7855'
p7012
S'7659'
p7013
F5.973785497726411
tp7014
a(S'7659'
p7015
S'7853'
p7016
F1.757509482816225
tp7017
a(S'7853'
p7018
S'7659'
p7019
F1.757509482816225
tp7020
a(S'7660'
p7021
S'7892'
p7022
F4.679977524620995
tp7023
a(S'7892'
p7024
S'7660'
p7025
F4.679977524620995
tp7026
a(S'7660'
p7027
S'8151'
p7028
F2.13117529555557
tp7029
a(S'8151'
p7030
S'7660'
p7031
F2.13117529555557
tp7032
a(S'7661'
p7033
S'8427'
p7034
F10.856299314231897
tp7035
a(S'8427'
p7036
S'7661'
p7037
F10.856299314231897
tp7038
a(S'7661'
p7039
S'8425'
p7040
F16.738781713084762
tp7041
a(S'8425'
p7042
S'7661'
p7043
F16.738781713084762
tp7044
a(S'7815'
p7045
S'8464'
p7046
F34.49253629533117
tp7047
a(S'8464'
p7048
S'7815'
p7049
F34.49253629533117
tp7050
a(S'7815'
p7051
S'8207'
p7052
F53.85305891103019
tp7053
a(S'8207'
p7054
S'7815'
p7055
F53.85305891103019
tp7056
a(S'7815'
p7057
S'7816'
p7058
F30.881528589172824
tp7059
a(S'7816'
p7060
S'7815'
p7061
F30.881528589172824
tp7062
a(S'7816'
p7063
S'7817'
p7064
F20.36885110242434
tp7065
a(S'7817'
p7066
S'7816'
p7067
F20.36885110242434
tp7068
a(S'7816'
p7069
S'8178'
p7070
F15.739315296267403
tp7071
a(S'8178'
p7072
S'7816'
p7073
F15.739315296267403
tp7074
a(S'7817'
p7075
S'8179'
p7076
F1.40436250485129
tp7077
a(S'8179'
p7078
S'7817'
p7079
F1.40436250485129
tp7080
a(S'7817'
p7081
S'8171'
p7082
F34.95703297416263
tp7083
a(S'8171'
p7084
S'7817'
p7085
F34.95703297416263
tp7086
a(S'7818'
p7087
S'8189'
p7088
F6.478969795328621
tp7089
a(S'8189'
p7090
S'7818'
p7091
F6.478969795328621
tp7092
a(S'7819'
p7093
S'7911'
p7094
F53.417470029582574
tp7095
a(S'7911'
p7096
S'7819'
p7097
F53.417470029582574
tp7098
a(S'7827'
p7099
S'7830'
p7100
F5.030746333593159
tp7101
a(S'7830'
p7102
S'7827'
p7103
F5.030746333593159
tp7104
a(S'7827'
p7105
S'8140'
p7106
F5.743082432908658
tp7107
a(S'8140'
p7108
S'7827'
p7109
F5.743082432908658
tp7110
a(S'7827'
p7111
S'8148'
p7112
F63.820834604488105
tp7113
a(S'8148'
p7114
S'7827'
p7115
F63.820834604488105
tp7116
a(S'7830'
p7117
S'8141'
p7118
F5.695825867772366
tp7119
a(S'8141'
p7120
S'7830'
p7121
F5.695825867772366
tp7122
a(S'7849'
p7123
S'8182'
p7124
F9.478869255241433
tp7125
a(S'8182'
p7126
S'7849'
p7127
F9.478869255241433
tp7128
a(S'7849'
p7129
S'8200'
p7130
F17.365709517502946
tp7131
a(S'8200'
p7132
S'7849'
p7133
F17.365709517502946
tp7134
a(S'7849'
p7135
S'8131'
p7136
F23.29323840502913
tp7137
a(S'8131'
p7138
S'7849'
p7139
F23.29323840502913
tp7140
a(S'7849'
p7141
S'8183'
p7142
F10.360799940765148
tp7143
a(S'8183'
p7144
S'7849'
p7145
F10.360799940765148
tp7146
a(S'7850'
p7147
S'7862'
p7148
F11.209368997173915
tp7149
a(S'7862'
p7150
S'7850'
p7151
F11.209368997173915
tp7152
a(S'7850'
p7153
S'7861'
p7154
F14.48550758942798
tp7155
a(S'7861'
p7156
S'7850'
p7157
F14.48550758942798
tp7158
a(S'7851'
p7159
S'7852'
p7160
F2.124862122511093
tp7161
a(S'7852'
p7162
S'7851'
p7163
F2.124862122511093
tp7164
a(S'7854'
p7165
S'7855'
p7166
F8.155112261157816
tp7167
a(S'7855'
p7168
S'7854'
p7169
F8.155112261157816
tp7170
a(S'7857'
p7171
S'8357'
p7172
F8.095490675383363
tp7173
a(S'8357'
p7174
S'7857'
p7175
F8.095490675383363
tp7176
a(S'7858'
p7177
S'7909'
p7178
F2.667887666614499
tp7179
a(S'7909'
p7180
S'7858'
p7181
F2.667887666614499
tp7182
a(S'7859'
p7183
S'7908'
p7184
F2.675232643222199
tp7185
a(S'7908'
p7186
S'7859'
p7187
F2.675232643222199
tp7188
a(S'7860'
p7189
S'7907'
p7190
F2.729194809329559
tp7191
a(S'7907'
p7192
S'7860'
p7193
F2.729194809329559
tp7194
a(S'7861'
p7195
S'7964'
p7196
F2.781285407605647
tp7197
a(S'7964'
p7198
S'7861'
p7199
F2.781285407605647
tp7200
a(S'7875'
p7201
S'8530'
p7202
F12.052799307727337
tp7203
a(S'8530'
p7204
S'7875'
p7205
F12.052799307727337
tp7206
a(S'7875'
p7207
S'8180'
p7208
F5.978248594027143
tp7209
a(S'8180'
p7210
S'7875'
p7211
F5.978248594027143
tp7212
a(S'7875'
p7213
S'8151'
p7214
F28.389548104410725
tp7215
a(S'8151'
p7216
S'7875'
p7217
F28.389548104410725
tp7218
a(S'7888'
p7219
S'8542'
p7220
F55.8537210929997
tp7221
a(S'8542'
p7222
S'7888'
p7223
F55.8537210929997
tp7224
a(S'7888'
p7225
S'8185'
p7226
F40.641291567523375
tp7227
a(S'8185'
p7228
S'7888'
p7229
F40.641291567523375
tp7230
a(S'7889'
p7231
S'8096'
p7232
F10.554479010608278
tp7233
a(S'8096'
p7234
S'7889'
p7235
F10.554479010608278
tp7236
a(S'7890'
p7237
S'8344'
p7238
F8.761627954068393
tp7239
a(S'8344'
p7240
S'7890'
p7241
F8.761627954068393
tp7242
a(S'7891'
p7243
S'7892'
p7244
F10.273046711584088
tp7245
a(S'7892'
p7246
S'7891'
p7247
F10.273046711584088
tp7248
a(S'7891'
p7249
S'8427'
p7250
F19.563538327959908
tp7251
a(S'8427'
p7252
S'7891'
p7253
F19.563538327959908
tp7254
a(S'7891'
p7255
S'8138'
p7256
F6.386720165825045
tp7257
a(S'8138'
p7258
S'7891'
p7259
F6.386720165825045
tp7260
a(S'7899'
p7261
S'8530'
p7262
F6.079229072714364
tp7263
a(S'8530'
p7264
S'7899'
p7265
F6.079229072714364
tp7266
a(S'7899'
p7267
S'8529'
p7268
F5.269511670334495
tp7269
a(S'8529'
p7270
S'7899'
p7271
F5.269511670334495
tp7272
a(S'7899'
p7273
S'8181'
p7274
F5.867392076298023
tp7275
a(S'8181'
p7276
S'7899'
p7277
F5.867392076298023
tp7278
a(S'7900'
p7279
S'8186'
p7280
F7.854329479631592
tp7281
a(S'8186'
p7282
S'7900'
p7283
F7.854329479631592
tp7284
a(S'7906'
p7285
S'8167'
p7286
F171.46342406791229
tp7287
a(S'8167'
p7288
S'7906'
p7289
F171.46342406791229
tp7290
a(S'7907'
p7291
S'7969'
p7292
F12.13642502711586
tp7293
a(S'7969'
p7294
S'7907'
p7295
F12.13642502711586
tp7296
a(S'7908'
p7297
S'7909'
p7298
F8.929922136770458
tp7299
a(S'7909'
p7300
S'7908'
p7301
F8.929922136770458
tp7302
a(S'7908'
p7303
S'7969'
p7304
F52.05406820634276
tp7305
a(S'7969'
p7306
S'7908'
p7307
F52.05406820634276
tp7308
a(S'7908'
p7309
S'8360'
p7310
F8.265908194543048
tp7311
a(S'8360'
p7312
S'7908'
p7313
F8.265908194543048
tp7314
a(S'7909'
p7315
S'8361'
p7316
F8.271375604280747
tp7317
a(S'8361'
p7318
S'7909'
p7319
F8.271375604280747
tp7320
a(S'8358'
p7321
S'8476'
p7322
F65.06704075307326
tp7323
a(S'8476'
p7324
S'8358'
p7325
F65.06704075307326
tp7326
a(S'7911'
p7327
S'8471'
p7328
F13.185856266272392
tp7329
a(S'8471'
p7330
S'7911'
p7331
F13.185856266272392
tp7332
a(S'7911'
p7333
S'8268'
p7334
F9.479514820637663
tp7335
a(S'8268'
p7336
S'7911'
p7337
F9.479514820637663
tp7338
a(S'7912'
p7339
S'8173'
p7340
F3.641216097291322
tp7341
a(S'8173'
p7342
S'7912'
p7343
F3.641216097291322
tp7344
a(S'7912'
p7345
S'8465'
p7346
F3.317649531685806
tp7347
a(S'8465'
p7348
S'7912'
p7349
F3.317649531685806
tp7350
a(S'7913'
p7351
S'8460'
p7352
F5.934864217047929
tp7353
a(S'8460'
p7354
S'7913'
p7355
F5.934864217047929
tp7356
a(S'7914'
p7357
S'8207'
p7358
F2.013353444589733
tp7359
a(S'8207'
p7360
S'7914'
p7361
F2.013353444589733
tp7362
a(S'7921'
p7363
S'8169'
p7364
F15.489820667194461
tp7365
a(S'8169'
p7366
S'7921'
p7367
F15.489820667194461
tp7368
a(S'7922'
p7369
S'8160'
p7370
F16.05198984207629
tp7371
a(S'8160'
p7372
S'7922'
p7373
F16.05198984207629
tp7374
a(S'7923'
p7375
S'8170'
p7376
F15.619838060090652
tp7377
a(S'8170'
p7378
S'7923'
p7379
F15.619838060090652
tp7380
a(S'7965'
p7381
S'7966'
p7382
F4.419072905925622
tp7383
a(S'7966'
p7384
S'7965'
p7385
F4.419072905925622
tp7386
a(S'7965'
p7387
S'7967'
p7388
F36.732758617621386
tp7389
a(S'7967'
p7390
S'7965'
p7391
F36.732758617621386
tp7392
a(S'7968'
p7393
S'7969'
p7394
F2.709519058895907
tp7395
a(S'7969'
p7396
S'7968'
p7397
F2.709519058895907
tp7398
a(S'7969'
p7399
S'8359'
p7400
F7.833462205861421
tp7401
a(S'8359'
p7402
S'7969'
p7403
F7.833462205861421
tp7404
a(S'7970'
p7405
S'7975'
p7406
F51.11326032012921
tp7407
a(S'7975'
p7408
S'7970'
p7409
F51.11326032012921
tp7410
a(S'7971'
p7411
S'7973'
p7412
F18.16516272108732
tp7413
a(S'7973'
p7414
S'7971'
p7415
F18.16516272108732
tp7416
a(S'7971'
p7417
S'7972'
p7418
F37.656262234367766
tp7419
a(S'7972'
p7420
S'7971'
p7421
F37.656262234367766
tp7422
a(S'7972'
p7423
S'7974'
p7424
F19.244082808059645
tp7425
a(S'7974'
p7426
S'7972'
p7427
F19.244082808059645
tp7428
a(S'7973'
p7429
S'7974'
p7430
F33.98650631968546
tp7431
a(S'7974'
p7432
S'7973'
p7433
F33.98650631968546
tp7434
a(S'7974'
p7435
S'7975'
p7436
F6.791507426941197
tp7437
a(S'7975'
p7438
S'7974'
p7439
F6.791507426941197
tp7440
a(S'7980'
p7441
S'8187'
p7442
F6.248108490024565
tp7443
a(S'8187'
p7444
S'7980'
p7445
F6.248108490024565
tp7446
a(S'7981'
p7447
S'8191'
p7448
F6.243572197438366
tp7449
a(S'8191'
p7450
S'7981'
p7451
F6.243572197438366
tp7452
a(S'7982'
p7453
S'8256'
p7454
F12.354285349379367
tp7455
a(S'8256'
p7456
S'7982'
p7457
F12.354285349379367
tp7458
a(S'7982'
p7459
S'8128'
p7460
F61.922758926785754
tp7461
a(S'8128'
p7462
S'7982'
p7463
F61.922758926785754
tp7464
a(S'7984'
p7465
S'8190'
p7466
F26.814546951982816
tp7467
a(S'8190'
p7468
S'7984'
p7469
F26.814546951982816
tp7470
a(S'8000'
p7471
S'8180'
p7472
F12.004891347765168
tp7473
a(S'8180'
p7474
S'8000'
p7475
F12.004891347765168
tp7476
a(S'8000'
p7477
S'8181'
p7478
F6.065208226540276
tp7479
a(S'8181'
p7480
S'8000'
p7481
F6.065208226540276
tp7482
a(S'8000'
p7483
S'8530'
p7484
F5.743051865363194
tp7485
a(S'8530'
p7486
S'8000'
p7487
F5.743051865363194
tp7488
a(S'8059'
p7489
S'8194'
p7490
F6.204645647061936
tp7491
a(S'8194'
p7492
S'8059'
p7493
F6.204645647061936
tp7494
a(S'8060'
p7495
S'8195'
p7496
F6.244885441782547
tp7497
a(S'8195'
p7498
S'8060'
p7499
F6.244885441782547
tp7500
a(S'8061'
p7501
S'8193'
p7502
F6.196393324585215
tp7503
a(S'8193'
p7504
S'8061'
p7505
F6.196393324585215
tp7506
a(S'8086'
p7507
S'8463'
p7508
F5.236184473223902
tp7509
a(S'8463'
p7510
S'8086'
p7511
F5.236184473223902
tp7512
a(S'8087'
p7513
S'8462'
p7514
F5.186159408253359
tp7515
a(S'8462'
p7516
S'8087'
p7517
F5.186159408253359
tp7518
a(S'8096'
p7519
S'8344'
p7520
F9.815562321187375
tp7521
a(S'8344'
p7522
S'8096'
p7523
F9.815562321187375
tp7524
a(S'8097'
p7525
S'8160'
p7526
F7.457133672901409
tp7527
a(S'8160'
p7528
S'8097'
p7529
F7.457133672901409
tp7530
a(S'8097'
p7531
S'8153'
p7532
F69.4148095125769
tp7533
a(S'8153'
p7534
S'8097'
p7535
F69.4148095125769
tp7536
a(S'8128'
p7537
S'8130'
p7538
F64.48236199762205
tp7539
a(S'8130'
p7540
S'8128'
p7541
F64.48236199762205
tp7542
a(S'8131'
p7543
S'8132'
p7544
F9.109118006114313
tp7545
a(S'8132'
p7546
S'8131'
p7547
F9.109118006114313
tp7548
a(S'8131'
p7549
S'8219'
p7550
F4.696067705150124
tp7551
a(S'8219'
p7552
S'8131'
p7553
F4.696067705150124
tp7554
a(S'8131'
p7555
S'8156'
p7556
F9.988252653536236
tp7557
a(S'8156'
p7558
S'8131'
p7559
F9.988252653536236
tp7560
a(S'8132'
p7561
S'8218'
p7562
F4.746084081687036
tp7563
a(S'8218'
p7564
S'8132'
p7565
F4.746084081687036
tp7566
a(S'8132'
p7567
S'8182'
p7568
F23.48883144099431
tp7569
a(S'8182'
p7570
S'8132'
p7571
F23.48883144099431
tp7572
a(S'8135'
p7573
S'8159'
p7574
F2.292682136675058
tp7575
a(S'8159'
p7576
S'8135'
p7577
F2.292682136675058
tp7578
a(S'8136'
p7579
S'8168'
p7580
F3.906087307662653
tp7581
a(S'8168'
p7582
S'8136'
p7583
F3.906087307662653
tp7584
a(S'8137'
p7585
S'8158'
p7586
F2.526375356672678
tp7587
a(S'8158'
p7588
S'8137'
p7589
F2.526375356672678
tp7590
a(S'8138'
p7591
S'8459'
p7592
F13.900636600820345
tp7593
a(S'8459'
p7594
S'8138'
p7595
F13.900636600820345
tp7596
a(S'8138'
p7597
S'8428'
p7598
F19.432406672021962
tp7599
a(S'8428'
p7600
S'8138'
p7601
F19.432406672021962
tp7602
a(S'8139'
p7603
S'8148'
p7604
F16.883672614662895
tp7605
a(S'8148'
p7606
S'8139'
p7607
F16.883672614662895
tp7608
a(S'8139'
p7609
S'8426'
p7610
F69.2199252263234
tp7611
a(S'8426'
p7612
S'8139'
p7613
F69.2199252263234
tp7614
a(S'8139'
p7615
S'8140'
p7616
F70.66556673452396
tp7617
a(S'8140'
p7618
S'8139'
p7619
F70.66556673452396
tp7620
a(S'8140'
p7621
S'8141'
p7622
F4.951493928992538
tp7623
a(S'8141'
p7624
S'8140'
p7625
F4.951493928992538
tp7626
a(S'8144'
p7627
S'8162'
p7628
F12.256798044369141
tp7629
a(S'8162'
p7630
S'8144'
p7631
F12.256798044369141
tp7632
a(S'8144'
p7633
S'8145'
p7634
F12.015323874806695
tp7635
a(S'8145'
p7636
S'8144'
p7637
F12.015323874806695
tp7638
a(S'8145'
p7639
S'8497'
p7640
F10.160148439715673
tp7641
a(S'8497'
p7642
S'8145'
p7643
F10.160148439715673
tp7644
a(S'8146'
p7645
S'8198'
p7646
F6.945836764056434
tp7647
a(S'8198'
p7648
S'8146'
p7649
F6.945836764056434
tp7650
a(S'8146'
p7651
S'8147'
p7652
F60.365435532293745
tp7653
a(S'8147'
p7654
S'8146'
p7655
F60.365435532293745
tp7656
a(S'8147'
p7657
S'8148'
p7658
F8.70967322553871
tp7659
a(S'8148'
p7660
S'8147'
p7661
F8.70967322553871
tp7662
a(S'8147'
p7663
S'8150'
p7664
F6.156257433912997
tp7665
a(S'8150'
p7666
S'8147'
p7667
F6.156257433912997
tp7668
a(S'8149'
p7669
S'8200'
p7670
F26.757804219430533
tp7671
a(S'8200'
p7672
S'8149'
p7673
F26.757804219430533
tp7674
a(S'8149'
p7675
S'8150'
p7676
F11.944903894383994
tp7677
a(S'8150'
p7678
S'8149'
p7679
F11.944903894383994
tp7680
a(S'8149'
p7681
S'8208'
p7682
F9.138220027874215
tp7683
a(S'8208'
p7684
S'8149'
p7685
F9.138220027874215
tp7686
a(S'8151'
p7687
S'8177'
p7688
F11.050150174750579
tp7689
a(S'8177'
p7690
S'8151'
p7691
F11.050150174750579
tp7692
a(S'8151'
p7693
S'8533'
p7694
F96.07252434655517
tp7695
a(S'8533'
p7696
S'8151'
p7697
F96.07252434655517
tp7698
a(S'8152'
p7699
S'8492'
p7700
F13.411179831089378
tp7701
a(S'8492'
p7702
S'8152'
p7703
F13.411179831089378
tp7704
a(S'8152'
p7705
S'8153'
p7706
F9.698200285495428
tp7707
a(S'8153'
p7708
S'8152'
p7709
F9.698200285495428
tp7710
a(S'8153'
p7711
S'8154'
p7712
F14.774413039064946
tp7713
a(S'8154'
p7714
S'8153'
p7715
F14.774413039064946
tp7716
a(S'8154'
p7717
S'8159'
p7718
F35.44633918759114
tp7719
a(S'8159'
p7720
S'8154'
p7721
F35.44633918759114
tp7722
a(S'8154'
p7723
S'8161'
p7724
F12.883633277925671
tp7725
a(S'8161'
p7726
S'8154'
p7727
F12.883633277925671
tp7728
a(S'8154'
p7729
S'8169'
p7730
F43.56246148088501
tp7731
a(S'8169'
p7732
S'8154'
p7733
F43.56246148088501
tp7734
a(S'8155'
p7735
S'8158'
p7736
F36.92440107209214
tp7737
a(S'8158'
p7738
S'8155'
p7739
F36.92440107209214
tp7740
a(S'8155'
p7741
S'8168'
p7742
F18.2354328422508
tp7743
a(S'8168'
p7744
S'8155'
p7745
F18.2354328422508
tp7746
a(S'8156'
p7747
S'8206'
p7748
F9.386937771694642
tp7749
a(S'8206'
p7750
S'8156'
p7751
F9.386937771694642
tp7752
a(S'8156'
p7753
S'8220'
p7754
F4.701600691240396
tp7755
a(S'8220'
p7756
S'8156'
p7757
F4.701600691240396
tp7758
a(S'8156'
p7759
S'8157'
p7760
F2.037903409458069
tp7761
a(S'8157'
p7762
S'8156'
p7763
F2.037903409458069
tp7764
a(S'8158'
p7765
S'8208'
p7766
F10.530161590826765
tp7767
a(S'8208'
p7768
S'8158'
p7769
F10.530161590826765
tp7770
a(S'8159'
p7771
S'8168'
p7772
F37.281420794237
tp7773
a(S'8168'
p7774
S'8159'
p7775
F37.281420794237
tp7776
a(S'8160'
p7777
S'8167'
p7778
F6.952667129023419
tp7779
a(S'8167'
p7780
S'8160'
p7781
F6.952667129023419
tp7782
a(S'8160'
p7783
S'8170'
p7784
F23.601382960749028
tp7785
a(S'8170'
p7786
S'8160'
p7787
F23.601382960749028
tp7788
a(S'8161'
p7789
S'8164'
p7790
F11.500108754068414
tp7791
a(S'8164'
p7792
S'8161'
p7793
F11.500108754068414
tp7794
a(S'8162'
p7795
S'8163'
p7796
F7.123332157209942
tp7797
a(S'8163'
p7798
S'8162'
p7799
F7.123332157209942
tp7800
a(S'8162'
p7801
S'8532'
p7802
F80.85210320645413
tp7803
a(S'8532'
p7804
S'8162'
p7805
F80.85210320645413
tp7806
a(S'8163'
p7807
S'8198'
p7808
F67.04399512882608
tp7809
a(S'8198'
p7810
S'8163'
p7811
F67.04399512882608
tp7812
a(S'8163'
p7813
S'8164'
p7814
F12.168121479792898
tp7815
a(S'8164'
p7816
S'8163'
p7817
F12.168121479792898
tp7818
a(S'8169'
p7819
S'8170'
p7820
F7.475200264262695
tp7821
a(S'8170'
p7822
S'8169'
p7823
F7.475200264262695
tp7824
a(S'8171'
p7825
S'8268'
p7826
F3.766476550743731
tp7827
a(S'8268'
p7828
S'8171'
p7829
F3.766476550743731
tp7830
a(S'8171'
p7831
S'8172'
p7832
F18.471450496365
tp7833
a(S'8172'
p7834
S'8171'
p7835
F18.471450496365
tp7836
a(S'8172'
p7837
S'8468'
p7838
F3.753419271057819
tp7839
a(S'8468'
p7840
S'8172'
p7841
F3.753419271057819
tp7842
a(S'8172'
p7843
S'8174'
p7844
F16.442169809198305
tp7845
a(S'8174'
p7846
S'8172'
p7847
F16.442169809198305
tp7848
a(S'8173'
p7849
S'8176'
p7850
F3.308134218214332
tp7851
a(S'8176'
p7852
S'8173'
p7853
F3.308134218214332
tp7854
a(S'8173'
p7855
S'8464'
p7856
F18.18263076773965
tp7857
a(S'8464'
p7858
S'8173'
p7859
F18.18263076773965
tp7860
a(S'8174'
p7861
S'8467'
p7862
F3.201895973140517
tp7863
a(S'8467'
p7864
S'8174'
p7865
F3.201895973140517
tp7866
a(S'8174'
p7867
S'8175'
p7868
F17.357082384381457
tp7869
a(S'8175'
p7870
S'8174'
p7871
F17.357082384381457
tp7872
a(S'8175'
p7873
S'8176'
p7874
F18.832990603415176
tp7875
a(S'8176'
p7876
S'8175'
p7877
F18.832990603415176
tp7878
a(S'8175'
p7879
S'8466'
p7880
F3.448881827980763
tp7881
a(S'8466'
p7882
S'8175'
p7883
F3.448881827980763
tp7884
a(S'8176'
p7885
S'8465'
p7886
F3.606990352255833
tp7887
a(S'8465'
p7888
S'8176'
p7889
F3.606990352255833
tp7890
a(S'8177'
p7891
S'8244'
p7892
F21.789731642876422
tp7893
a(S'8244'
p7894
S'8177'
p7895
F21.789731642876422
tp7896
a(S'8177'
p7897
S'8180'
p7898
F23.769992505998477
tp7899
a(S'8180'
p7900
S'8177'
p7901
F23.769992505998477
tp7902
a(S'8178'
p7903
S'8179'
p7904
F21.205657259918443
tp7905
a(S'8179'
p7906
S'8178'
p7907
F21.205657259918443
tp7908
a(S'8178'
p7909
S'8528'
p7910
F105.91540391428744
tp7911
a(S'8528'
p7912
S'8178'
p7913
F105.91540391428744
tp7914
a(S'8181'
p7915
S'8528'
p7916
F5.195875836761792
tp7917
a(S'8528'
p7918
S'8181'
p7919
F5.195875836761792
tp7920
a(S'8182'
p7921
S'8199'
p7922
F17.312536493076106
tp7923
a(S'8199'
p7924
S'8182'
p7925
F17.312536493076106
tp7926
a(S'8183'
p7927
S'8204'
p7928
F6.104149524226114
tp7929
a(S'8204'
p7930
S'8183'
p7931
F6.104149524226114
tp7932
a(S'8183'
p7933
S'8184'
p7934
F1.911137680781813
tp7935
a(S'8184'
p7936
S'8183'
p7937
F1.911137680781813
tp7938
a(S'8183'
p7939
S'8206'
p7940
F13.725548724212217
tp7941
a(S'8206'
p7942
S'8183'
p7943
F13.725548724212217
tp7944
a(S'8185'
p7945
S'8195'
p7946
F16.378273494154875
tp7947
a(S'8195'
p7948
S'8185'
p7949
F16.378273494154875
tp7950
a(S'8186'
p7951
S'8187'
p7952
F19.051893094491014
tp7953
a(S'8187'
p7954
S'8186'
p7955
F19.051893094491014
tp7956
a(S'8187'
p7957
S'8480'
p7958
F17.9820182288025
tp7959
a(S'8480'
p7960
S'8187'
p7961
F17.9820182288025
tp7962
a(S'8188'
p7963
S'8480'
p7964
F17.51587529739599
tp7965
a(S'8480'
p7966
S'8188'
p7967
F17.51587529739599
tp7968
a(S'8188'
p7969
S'8189'
p7970
F20.349176465479687
tp7971
a(S'8189'
p7972
S'8188'
p7973
F20.349176465479687
tp7974
a(S'8189'
p7975
S'8190'
p7976
F10.18972066635265
tp7977
a(S'8190'
p7978
S'8189'
p7979
F10.18972066635265
tp7980
a(S'8190'
p7981
S'8191'
p7982
F11.386020806357799
tp7983
a(S'8191'
p7984
S'8190'
p7985
F11.386020806357799
tp7986
a(S'8191'
p7987
S'8192'
p7988
F4.421864014786843
tp7989
a(S'8192'
p7990
S'8191'
p7991
F4.421864014786843
tp7992
a(S'8192'
p7993
S'8193'
p7994
F9.796986972866828
tp7995
a(S'8193'
p7996
S'8192'
p7997
F9.796986972866828
tp7998
a(S'8193'
p7999
S'8194'
p8000
F10.889510428334935
tp8001
a(S'8194'
p8002
S'8193'
p8003
F10.889510428334935
tp8004
a(S'8194'
p8005
S'8195'
p8006
F23.56369907192333
tp8007
a(S'8195'
p8008
S'8194'
p8009
F23.56369907192333
tp8010
a(S'8197'
p8011
S'8198'
p8012
F16.23733290215416
tp8013
a(S'8198'
p8014
S'8197'
p8015
F16.23733290215416
tp8016
a(S'8199'
p8017
S'8200'
p8018
F10.555112599152922
tp8019
a(S'8200'
p8020
S'8199'
p8021
F10.555112599152922
tp8022
a(S'8200'
p8023
S'8201'
p8024
F9.637981114602717
tp8025
a(S'8201'
p8026
S'8200'
p8027
F9.637981114602717
tp8028
a(S'8201'
p8029
S'8248'
p8030
F4.282870917123776
tp8031
a(S'8248'
p8032
S'8201'
p8033
F4.282870917123776
tp8034
a(S'8201'
p8035
S'8204'
p8036
F11.276635268465586
tp8037
a(S'8204'
p8038
S'8201'
p8039
F11.276635268465586
tp8040
a(S'8201'
p8041
S'8202'
p8042
F1.855790610774019
tp8043
a(S'8202'
p8044
S'8201'
p8045
F1.855790610774019
tp8046
a(S'8203'
p8047
S'8204'
p8048
F1.888996948289503
tp8049
a(S'8204'
p8050
S'8203'
p8051
F1.888996948289503
tp8052
a(S'8205'
p8053
S'8206'
p8054
F1.969281912757403
tp8055
a(S'8206'
p8056
S'8205'
p8057
F1.969281912757403
tp8058
a(S'8207'
p8059
S'8208'
p8060
F34.6967353029369
tp8061
a(S'8208'
p8062
S'8207'
p8063
F34.6967353029369
tp8064
a(S'8208'
p8065
S'8248'
p8066
F20.739636517152103
tp8067
a(S'8248'
p8068
S'8208'
p8069
F20.739636517152103
tp8070
a(S'8218'
p8071
S'8219'
p8072
F9.272955888861466
tp8073
a(S'8219'
p8074
S'8218'
p8075
F9.272955888861466
tp8076
a(S'8218'
p8077
S'8425'
p8078
F20.81260828736023
tp8079
a(S'8425'
p8080
S'8218'
p8081
F20.81260828736023
tp8082
a(S'8219'
p8083
S'8220'
p8084
F9.628355309801542
tp8085
a(S'8220'
p8086
S'8219'
p8087
F9.628355309801542
tp8088
a(S'8220'
p8089
S'8246'
p8090
F9.466172957026807
tp8091
a(S'8246'
p8092
S'8220'
p8093
F9.466172957026807
tp8094
a(S'8220'
p8095
S'8221'
p8096
F2.003967762813214
tp8097
a(S'8221'
p8098
S'8220'
p8099
F2.003967762813214
tp8100
a(S'8243'
p8101
S'8244'
p8102
F2.007250865783331
tp8103
a(S'8244'
p8104
S'8243'
p8105
F2.007250865783331
tp8106
a(S'8244'
p8107
S'8246'
p8108
F19.71086227019879
tp8109
a(S'8246'
p8110
S'8244'
p8111
F19.71086227019879
tp8112
a(S'8245'
p8113
S'8246'
p8114
F2.069553029709858
tp8115
a(S'8246'
p8116
S'8245'
p8117
F2.069553029709858
tp8118
a(S'8247'
p8119
S'8248'
p8120
F1.854467725324135
tp8121
a(S'8248'
p8122
S'8247'
p8123
F1.854467725324135
tp8124
a(S'8249'
p8125
S'8532'
p8126
F4.425429226219421
tp8127
a(S'8532'
p8128
S'8249'
p8129
F4.425429226219421
tp8130
a(S'8256'
p8131
S'8259'
p8132
F33.4158894434745
tp8133
a(S'8259'
p8134
S'8256'
p8135
F33.4158894434745
tp8136
a(S'8263'
p8137
S'8264'
p8138
F68.04050797954292
tp8139
a(S'8264'
p8140
S'8263'
p8141
F68.04050797954292
tp8142
a(S'8268'
p8143
S'8470'
p8144
F13.10395935492686
tp8145
a(S'8470'
p8146
S'8268'
p8147
F13.10395935492686
tp8148
a(S'8272'
p8149
S'8677'
p8150
F125.60281551642476
tp8151
a(S'8677'
p8152
S'8272'
p8153
F125.60281551642476
tp8154
a(S'8360'
p8155
S'8361'
p8156
F8.963566845531014
tp8157
a(S'8361'
p8158
S'8360'
p8159
F8.963566845531014
tp8160
a(S'8409'
p8161
S'8412'
p8162
F20.09727325162033
tp8163
a(S'8412'
p8164
S'8409'
p8165
F20.09727325162033
tp8166
a(S'8410'
p8167
S'8413'
p8168
F7.722225298266042
tp8169
a(S'8413'
p8170
S'8410'
p8171
F7.722225298266042
tp8172
a(S'8410'
p8173
S'8412'
p8174
F22.380900197199573
tp8175
a(S'8412'
p8176
S'8410'
p8177
F22.380900197199573
tp8178
a(S'8411'
p8179
S'8415'
p8180
F14.214326546138341
tp8181
a(S'8415'
p8182
S'8411'
p8183
F14.214326546138341
tp8184
a(S'8411'
p8185
S'8414'
p8186
F13.057658869866414
tp8187
a(S'8414'
p8188
S'8411'
p8189
F13.057658869866414
tp8190
a(S'8411'
p8191
S'8419'
p8192
F25.313887924311892
tp8193
a(S'8419'
p8194
S'8411'
p8195
F25.313887924311892
tp8196
a(S'8412'
p8197
S'8415'
p8198
F11.276716898674906
tp8199
a(S'8415'
p8200
S'8412'
p8201
F11.276716898674906
tp8202
a(S'8412'
p8203
S'8414'
p8204
F12.854610330591006
tp8205
a(S'8414'
p8206
S'8412'
p8207
F12.854610330591006
tp8208
a(S'8419'
p8209
S'8421'
p8210
F6.526794705030228
tp8211
a(S'8421'
p8212
S'8419'
p8213
F6.526794705030228
tp8214
a(S'8419'
p8215
S'8690'
p8216
F228.43025466828092
tp8217
a(S'8690'
p8218
S'8419'
p8219
F228.43025466828092
tp8220
a(S'8425'
p8221
S'8426'
p8222
F6.109473044928839
tp8223
a(S'8426'
p8224
S'8425'
p8225
F6.109473044928839
tp8226
a(S'8426'
p8227
S'8428'
p8228
F28.032596491373102
tp8229
a(S'8428'
p8230
S'8426'
p8231
F28.032596491373102
tp8232
a(S'8427'
p8233
S'8428'
p8234
F6.064392209562999
tp8235
a(S'8428'
p8236
S'8427'
p8237
F6.064392209562999
tp8238
a(S'8456'
p8239
S'8457'
p8240
F33.995517566554604
tp8241
a(S'8457'
p8242
S'8456'
p8243
F33.995517566554604
tp8244
a(S'8458'
p8245
S'8459'
p8246
F23.939563644211656
tp8247
a(S'8459'
p8248
S'8458'
p8249
F23.939563644211656
tp8250
a(S'8462'
p8251
S'8463'
p8252
F10.246424404657015
tp8253
a(S'8463'
p8254
S'8462'
p8255
F10.246424404657015
tp8256
a(S'8465'
p8257
S'8466'
p8258
F18.814699030761247
tp8259
a(S'8466'
p8260
S'8465'
p8261
F18.814699030761247
tp8262
a(S'8466'
p8263
S'8467'
p8264
F17.367327009219647
tp8265
a(S'8467'
p8266
S'8466'
p8267
F17.367327009219647
tp8268
a(S'8467'
p8269
S'8475'
p8270
F12.627112996476162
tp8271
a(S'8475'
p8272
S'8467'
p8273
F12.627112996476162
tp8274
a(S'8468'
p8275
S'8473'
p8276
F1.158707844856559
tp8277
a(S'8473'
p8278
S'8468'
p8279
F1.158707844856559
tp8280
a(S'8468'
p8281
S'8475'
p8282
F7.387221901413462
tp8283
a(S'8475'
p8284
S'8468'
p8285
F7.387221901413462
tp8286
a(S'8469'
p8287
S'8471'
p8288
F1.390463171739515
tp8289
a(S'8471'
p8290
S'8469'
p8291
F1.390463171739515
tp8292
a(S'8470'
p8293
S'8473'
p8294
F4.209542724922924
tp8295
a(S'8473'
p8296
S'8470'
p8297
F4.209542724922924
tp8298
a(S'8470'
p8299
S'8471'
p8300
F9.374137862254427
tp8301
a(S'8471'
p8302
S'8470'
p8303
F9.374137862254427
tp8304
a(S'8471'
p8305
S'8474'
p8306
F4.257624079376636
tp8307
a(S'8474'
p8308
S'8471'
p8309
F4.257624079376636
tp8310
a(S'8472'
p8311
S'8474'
p8312
F1.394445591978124
tp8313
a(S'8474'
p8314
S'8472'
p8315
F1.394445591978124
tp8316
a(S'8473'
p8317
S'8474'
p8318
F9.353805480612367
tp8319
a(S'8474'
p8320
S'8473'
p8321
F9.353805480612367
tp8322
a(S'8474'
p8323
S'8476'
p8324
F13.648487806101375
tp8325
a(S'8476'
p8326
S'8474'
p8327
F13.648487806101375
tp8328
a(S'8475'
p8329
S'8476'
p8330
F11.651593480283644
tp8331
a(S'8476'
p8332
S'8475'
p8333
F11.651593480283644
tp8334
a(S'8480'
p8335
S'8481'
p8336
F4.699144712695698
tp8337
a(S'8481'
p8338
S'8480'
p8339
F4.699144712695698
tp8340
a(S'8492'
p8341
S'8495'
p8342
F12.950086876459446
tp8343
a(S'8495'
p8344
S'8492'
p8345
F12.950086876459446
tp8346
a(S'8494'
p8347
S'8497'
p8348
F2.354855036367051
tp8349
a(S'8497'
p8350
S'8494'
p8351
F2.354855036367051
tp8352
a(S'8494'
p8353
S'8496'
p8354
F14.80922348966083
tp8355
a(S'8496'
p8356
S'8494'
p8357
F14.80922348966083
tp8358
a(S'8495'
p8359
S'8496'
p8360
F11.146198634230554
tp8361
a(S'8496'
p8362
S'8495'
p8363
F11.146198634230554
tp8364
a(S'8528'
p8365
S'8529'
p8366
F5.93441322933694
tp8367
a(S'8529'
p8368
S'8528'
p8369
F5.93441322933694
tp8370
a(S'8531'
p8371
S'8532'
p8372
F1.518551237841218
tp8373
a(S'8532'
p8374
S'8531'
p8375
F1.518551237841218
tp8376
a(S'8533'
p8377
S'8534'
p8378
F7.528560566214551
tp8379
a(S'8534'
p8380
S'8533'
p8381
F7.528560566214551
tp8382
a(S'8533'
p8383
S'8542'
p8384
F271.7384345695587
tp8385
a(S'8542'
p8386
S'8533'
p8387
F271.7384345695587
tp8388
a(S'8534'
p8389
S'8535'
p8390
F17.43981558304207
tp8391
a(S'8535'
p8392
S'8534'
p8393
F17.43981558304207
tp8394
a(S'8542'
p8395
S'8543'
p8396
F9.51040304627444
tp8397
a(S'8543'
p8398
S'8542'
p8399
F9.51040304627444
tp8400
a(S'8679'
p8401
S'8832'
p8402
F5.645960625234913
tp8403
a(S'8832'
p8404
S'8679'
p8405
F5.645960625234913
tp8406
a(S'8680'
p8407
S'8831'
p8408
F4.781722700352357
tp8409
a(S'8831'
p8410
S'8680'
p8411
F4.781722700352357
tp8412
a(S'8698'
p8413
S'8699'
p8414
F12.453968744632036
tp8415
a(S'8699'
p8416
S'8698'
p8417
F12.453968744632036
tp8418
a.